ARM GAS  C:\Users\wormley\AppData\Local\Temp\ccWx7Wvt.s 			page 1


   1              		.syntax unified
   2              		.cpu cortex-m3
   3              		.fpu softvfp
   4              		.eabi_attribute 20, 1
   5              		.eabi_attribute 21, 1
   6              		.eabi_attribute 23, 3
   7              		.eabi_attribute 24, 1
   8              		.eabi_attribute 25, 1
   9              		.eabi_attribute 26, 1
  10              		.eabi_attribute 30, 1
  11              		.eabi_attribute 34, 1
  12              		.eabi_attribute 18, 4
  13              		.thumb
  14              		.syntax unified
  15              		.file	"BL.c"
  16              		.text
  17              	.Ltext0:
  18              		.cfi_sections	.debug_frame
  19              		.section	.text.BL_CalcPacketChecksum,"ax",%progbits
  20              		.align	2
  21              		.thumb
  22              		.thumb_func
  23              		.type	BL_CalcPacketChecksum, %function
  24              	BL_CalcPacketChecksum:
  25              	.LFB63:
  26              		.file 1 "Generated_Source\\PSoC5\\BL.c"
   1:Generated_Source\PSoC5/BL.c **** /****************************************************************************//**
   2:Generated_Source\PSoC5/BL.c **** * \file BL.c
   3:Generated_Source\PSoC5/BL.c **** * \version 1.60
   4:Generated_Source\PSoC5/BL.c **** *
   5:Generated_Source\PSoC5/BL.c **** * \brief
   6:Generated_Source\PSoC5/BL.c **** *   Provides an API for the Bootloader component. The API includes functions
   7:Generated_Source\PSoC5/BL.c **** *   for starting bootloading operations, validating the application and
   8:Generated_Source\PSoC5/BL.c **** *   jumping to the application.
   9:Generated_Source\PSoC5/BL.c **** *
  10:Generated_Source\PSoC5/BL.c **** ********************************************************************************
  11:Generated_Source\PSoC5/BL.c **** * \copyright
  12:Generated_Source\PSoC5/BL.c **** * Copyright 2008-2018, Cypress Semiconductor Corporation.  All rights reserved.
  13:Generated_Source\PSoC5/BL.c **** * You may use this file only in accordance with the license, terms, conditions,
  14:Generated_Source\PSoC5/BL.c **** * disclaimers, and limitations in the end user license agreement accompanying
  15:Generated_Source\PSoC5/BL.c **** * the software package with which this file was provided.
  16:Generated_Source\PSoC5/BL.c **** *******************************************************************************/
  17:Generated_Source\PSoC5/BL.c **** 
  18:Generated_Source\PSoC5/BL.c **** #include "BL_PVT.h"
  19:Generated_Source\PSoC5/BL.c **** 
  20:Generated_Source\PSoC5/BL.c **** #include "cyapicallbacks.h"
  21:Generated_Source\PSoC5/BL.c **** 
  22:Generated_Source\PSoC5/BL.c **** #include "project.h"
  23:Generated_Source\PSoC5/BL.c **** #include <string.h>
  24:Generated_Source\PSoC5/BL.c **** 
  25:Generated_Source\PSoC5/BL.c **** #if (CY_BOOT_VERSION < CY_BOOT_5_0)
  26:Generated_Source\PSoC5/BL.c **** #error Component Bootloader_v1_60 requires cy_boot v5.00 or later
  27:Generated_Source\PSoC5/BL.c **** #endif /* (CY_BOOT_VERSION >= CY_BOOT_5_0) */
  28:Generated_Source\PSoC5/BL.c **** 
  29:Generated_Source\PSoC5/BL.c **** /*******************************************************************************
  30:Generated_Source\PSoC5/BL.c **** * The Checksum and SizeBytes are forcefully set in code. We then post process
  31:Generated_Source\PSoC5/BL.c **** * the hex file from the linker and inject their values. When the hex file
ARM GAS  C:\Users\wormley\AppData\Local\Temp\ccWx7Wvt.s 			page 2


  32:Generated_Source\PSoC5/BL.c **** * is loaded into the device, these two variables should have valid values.
  33:Generated_Source\PSoC5/BL.c **** * Because the compiler can do optimization to remove the constant
  34:Generated_Source\PSoC5/BL.c **** * accesses, these should not be accessed directly. Instead, the variables
  35:Generated_Source\PSoC5/BL.c **** * CyBtldr_ChecksumAccess & CyBtldr_SizeBytesAccess should be used to get the
  36:Generated_Source\PSoC5/BL.c **** * proper values at the runtime.
  37:Generated_Source\PSoC5/BL.c **** *******************************************************************************/
  38:Generated_Source\PSoC5/BL.c **** #if (CYDEV_PROJ_TYPE != CYDEV_PROJ_TYPE_LOADABLEANDBOOTLOADER)
  39:Generated_Source\PSoC5/BL.c **** #if defined(__ARMCC_VERSION) || defined (__GNUC__)
  40:Generated_Source\PSoC5/BL.c ****     __attribute__((section (".bootloader"), used))
  41:Generated_Source\PSoC5/BL.c **** #elif defined (__ICCARM__)
  42:Generated_Source\PSoC5/BL.c ****     #pragma location=".bootloader"
  43:Generated_Source\PSoC5/BL.c **** #endif  /* defined(__ARMCC_VERSION) || defined (__GNUC__) */
  44:Generated_Source\PSoC5/BL.c **** 
  45:Generated_Source\PSoC5/BL.c **** #if defined(__ARMCC_VERSION) || defined (__GNUC__) || defined (__C51__)
  46:Generated_Source\PSoC5/BL.c ****            const uint8  CYCODE BL_Checksum = 0u;
  47:Generated_Source\PSoC5/BL.c **** #elif defined (__ICCARM__)
  48:Generated_Source\PSoC5/BL.c ****     __root const uint8  CYCODE BL_Checksum = 0u;
  49:Generated_Source\PSoC5/BL.c **** #endif  /* defined(__ARMCC_VERSION) || defined (__GNUC__) || defined (__C51__) */
  50:Generated_Source\PSoC5/BL.c **** const uint8  CYCODE *BL_ChecksumAccess  = (const uint8  CYCODE *)(&BL_Checksum);
  51:Generated_Source\PSoC5/BL.c **** 
  52:Generated_Source\PSoC5/BL.c **** #if defined(__ARMCC_VERSION) || defined (__GNUC__)
  53:Generated_Source\PSoC5/BL.c ****     __attribute__((section (".bootloader"), used))
  54:Generated_Source\PSoC5/BL.c ****     const uint32 CYCODE BL_SizeBytes = 0xFFFFFFFFu;
  55:Generated_Source\PSoC5/BL.c **** #elif defined (__ICCARM__)
  56:Generated_Source\PSoC5/BL.c ****     #pragma location=".bootloader"
  57:Generated_Source\PSoC5/BL.c ****     __root const uint32 CYCODE BL_SizeBytes = 0xFFFFFFFFu;
  58:Generated_Source\PSoC5/BL.c **** #elif defined (__C51__)
  59:Generated_Source\PSoC5/BL.c ****     const uint32 CYCODE BL_SizeBytes = 0xFFFFFFFFu;
  60:Generated_Source\PSoC5/BL.c **** #endif  /* defined(__ARMCC_VERSION) || defined (__GNUC__) */
  61:Generated_Source\PSoC5/BL.c **** 
  62:Generated_Source\PSoC5/BL.c **** const uint32 CYCODE *BL_SizeBytesAccess = (const uint32 CYCODE *)(&BL_SizeBytes);
  63:Generated_Source\PSoC5/BL.c **** #endif /*(CYDEV_PROJ_TYPE != CYDEV_PROJ_TYPE_LOADABLEANDBOOTLOADER)*/
  64:Generated_Source\PSoC5/BL.c **** 
  65:Generated_Source\PSoC5/BL.c **** /**
  66:Generated_Source\PSoC5/BL.c ****  \defgroup variables_group Variables
  67:Generated_Source\PSoC5/BL.c ****  @{
  68:Generated_Source\PSoC5/BL.c **** */
  69:Generated_Source\PSoC5/BL.c **** #if (CYDEV_PROJ_TYPE == CYDEV_PROJ_TYPE_LOADABLEANDBOOTLOADER) 
  70:Generated_Source\PSoC5/BL.c **** /**
  71:Generated_Source\PSoC5/BL.c ****  *  This variable is intended to indicate that in-application 
  72:Generated_Source\PSoC5/BL.c ****  *  bootloading initialization is done. The initialization itself is performed in the
  73:Generated_Source\PSoC5/BL.c ****  *  BL_Initialize() function. Once the initialization is done,
  74:Generated_Source\PSoC5/BL.c ****  *  the variable is set and this prevents the functionality from reinitialization.
  75:Generated_Source\PSoC5/BL.c ****  */
  76:Generated_Source\PSoC5/BL.c **** uint8 BL_initVar = BL_BOOTLOADING_NOT_INITIALIZED;
  77:Generated_Source\PSoC5/BL.c **** 
  78:Generated_Source\PSoC5/BL.c **** /**
  79:Generated_Source\PSoC5/BL.c ****  *  This variable is intended to keep the current application number. It applies
  80:Generated_Source\PSoC5/BL.c ****  *  only to in-application bootloading.
  81:Generated_Source\PSoC5/BL.c ****  */
  82:Generated_Source\PSoC5/BL.c **** uint8 BL_runningApp = BL_RUNNING_APPLICATION_UNKNOWN;
  83:Generated_Source\PSoC5/BL.c **** 
  84:Generated_Source\PSoC5/BL.c **** /**
  85:Generated_Source\PSoC5/BL.c ****  *  This variable is intended to indicate that 'Enter bootloader' command has
  86:Generated_Source\PSoC5/BL.c ****  *  been received. It applies only to in-application bootloading.
  87:Generated_Source\PSoC5/BL.c ****  */
  88:Generated_Source\PSoC5/BL.c **** uint8 BL_isBootloading = BL_BOOTLOADING_COMPLETED;
ARM GAS  C:\Users\wormley\AppData\Local\Temp\ccWx7Wvt.s 			page 3


  89:Generated_Source\PSoC5/BL.c **** #endif /*CYDEV_PROJ_TYPE == CYDEV_PROJ_TYPE_LOADABLEANDBOOTLOADER*/
  90:Generated_Source\PSoC5/BL.c **** 
  91:Generated_Source\PSoC5/BL.c **** #if ((0u != BL_DUAL_APP_BOOTLOADER)  || (CYDEV_PROJ_TYPE == CYDEV_PROJ_TYPE_LOADABLEANDBOOTLOADER))
  92:Generated_Source\PSoC5/BL.c **** /**
  93:Generated_Source\PSoC5/BL.c ****  *  This variable is intended to keep the active application number. It applies
  94:Generated_Source\PSoC5/BL.c ****  *  to Classic Dual-app Bootloader and in-application bootloading.
  95:Generated_Source\PSoC5/BL.c ****  */
  96:Generated_Source\PSoC5/BL.c **** volatile uint8 BL_activeApp = BL_MD_BTLDB_ACTIVE_NONE;
  97:Generated_Source\PSoC5/BL.c **** #else /*SINGLE-APP BOOTLOADER*/
  98:Generated_Source\PSoC5/BL.c ****     #define BL_activeApp      (BL_MD_BTLDB_ACTIVE_0)
  99:Generated_Source\PSoC5/BL.c **** #endif  /* (0u != BL_DUAL_APP_BOOTLOADER) */
 100:Generated_Source\PSoC5/BL.c **** 
 101:Generated_Source\PSoC5/BL.c **** 
 102:Generated_Source\PSoC5/BL.c **** #if (0u != BL_SECURITY_KEY_AVAIL) 
 103:Generated_Source\PSoC5/BL.c **** /**
 104:Generated_Source\PSoC5/BL.c ****  *  This variable holds the security key for additional safety during communication.
 105:Generated_Source\PSoC5/BL.c ****  */
 106:Generated_Source\PSoC5/BL.c **** static const uint8 CYCODE BL_securityKey[BL_SECURITY_KEY_LENGTH] = {0x11u, 0x22u, 0x33u, 0x44u, 0x5
 107:Generated_Source\PSoC5/BL.c **** #endif /*(0u != BL_SECURITY_KEY_AVAIL)*/
 108:Generated_Source\PSoC5/BL.c **** 
 109:Generated_Source\PSoC5/BL.c **** #if ((CYDEV_PROJ_TYPE != CYDEV_PROJ_TYPE_LAUNCHER) && (!CY_PSOC3))
 110:Generated_Source\PSoC5/BL.c **** /**
 111:Generated_Source\PSoC5/BL.c ****  *  This variable holds the pointer on the user's callback-function that implements the custom 
 112:Generated_Source\PSoC5/BL.c ****  *  bootloader command processing.
 113:Generated_Source\PSoC5/BL.c ****  */
 114:Generated_Source\PSoC5/BL.c **** static BL_callback_type BL_callback = NULL;
 115:Generated_Source\PSoC5/BL.c **** #endif /*(CYDEV_PROJ_TYPE != CYDEV_PROJ_TYPE_LAUNCHER) && (!CY_PSOC3)*/
 116:Generated_Source\PSoC5/BL.c **** /** @}*/
 117:Generated_Source\PSoC5/BL.c ****  
 118:Generated_Source\PSoC5/BL.c **** /***************************************
 119:Generated_Source\PSoC5/BL.c **** *     Function Prototypes
 120:Generated_Source\PSoC5/BL.c **** ***************************************/
 121:Generated_Source\PSoC5/BL.c **** #if (CYDEV_PROJ_TYPE != CYDEV_PROJ_TYPE_LOADABLEANDBOOTLOADER)
 122:Generated_Source\PSoC5/BL.c ****     static void  BL_LaunchApplication(void) CYSMALL \
 123:Generated_Source\PSoC5/BL.c ****                     ; 
 124:Generated_Source\PSoC5/BL.c **** #if(!CY_PSOC3)
 125:Generated_Source\PSoC5/BL.c ****     /* Implementation for PSoC 3 resides in Bootloader_psoc3.a51 file.  */
 126:Generated_Source\PSoC5/BL.c ****     static void     BL_LaunchBootloadable(uint32 appAddr);
 127:Generated_Source\PSoC5/BL.c **** #endif  /* (!CY_PSOC3) */
 128:Generated_Source\PSoC5/BL.c **** #endif /* CYDEV_PROJ_TYPE != CYDEV_PROJ_TYPE_LOADABLEANDBOOTLOADER */ 
 129:Generated_Source\PSoC5/BL.c **** 
 130:Generated_Source\PSoC5/BL.c **** #if (CYDEV_PROJ_TYPE != CYDEV_PROJ_TYPE_LAUNCHER)
 131:Generated_Source\PSoC5/BL.c ****     static cystatus BL_WritePacket(uint8 status, uint8 buffer[], uint16 size) CYSMALL \
 132:Generated_Source\PSoC5/BL.c ****                                     ;
 133:Generated_Source\PSoC5/BL.c **** 
 134:Generated_Source\PSoC5/BL.c ****     static uint16   BL_CalcPacketChecksum(const uint8 buffer[], uint16 size) CYSMALL \
 135:Generated_Source\PSoC5/BL.c ****                                     ;
 136:Generated_Source\PSoC5/BL.c ****                                     
 137:Generated_Source\PSoC5/BL.c ****     #if (0u != BL_CMD_VERIFY_FLS_ROW_AVAIL)
 138:Generated_Source\PSoC5/BL.c ****     static uint8 BL_VerifyRow(uint32 flashStart, const uint8 ramStart[], uint16 size) \
 139:Generated_Source\PSoC5/BL.c ****                 CYSMALL ;                                
 140:Generated_Source\PSoC5/BL.c ****     #endif /*(0u != BL_CMD_VERIFY_FLS_ROW_AVAIL)*/            
 141:Generated_Source\PSoC5/BL.c **** 
 142:Generated_Source\PSoC5/BL.c **** #if (CYDEV_PROJ_TYPE != CYDEV_PROJ_TYPE_LOADABLEANDBOOTLOADER)                                    
 143:Generated_Source\PSoC5/BL.c ****     static void BL_HostLink(uint8 timeOut) CYLARGE ;
 144:Generated_Source\PSoC5/BL.c **** #endif /* (CYDEV_PROJ_TYPE != CYDEV_PROJ_TYPE_LOADABLEANDBOOTLOADER) */                            
 145:Generated_Source\PSoC5/BL.c **** #endif /*(CYDEV_PROJ_TYPE != CYDEV_PROJ_TYPE_LAUNCHER)*/
ARM GAS  C:\Users\wormley\AppData\Local\Temp\ccWx7Wvt.s 			page 4


 146:Generated_Source\PSoC5/BL.c ****                                     
 147:Generated_Source\PSoC5/BL.c **** #if (((0u != BL_DUAL_APP_BOOTLOADER) && (CYDEV_PROJ_TYPE != CYDEV_PROJ_TYPE_LAUNCHER)) \
 148:Generated_Source\PSoC5/BL.c ****                                           || (CYDEV_PROJ_TYPE == CYDEV_PROJ_TYPE_LOADABLEANDBOOTLOA
 149:Generated_Source\PSoC5/BL.c ****     static uint8 BL_CheckImage(uint8 appNumber, uint8 arrayNumber, uint16 row, uint16 rowNumInArray
 150:Generated_Source\PSoC5/BL.c ****                                     ;                                    
 151:Generated_Source\PSoC5/BL.c **** #endif /*(((0u != BL_DUAL_APP_BOOTLOADER) && (CYDEV_PROJ_TYPE != CYDEV_PROJ_TYPE_LAUNCHER)) \
 152:Generated_Source\PSoC5/BL.c ****                                           || (CYDEV_PROJ_TYPE == CYDEV_PROJ_TYPE_LOADABLEANDBOOTLOA
 153:Generated_Source\PSoC5/BL.c **** 
 154:Generated_Source\PSoC5/BL.c **** #if ((CYDEV_PROJ_TYPE == CYDEV_PROJ_TYPE_LOADABLEANDBOOTLOADER) || (0u != BL_DUAL_APP_BOOTLOADER)) 
 155:Generated_Source\PSoC5/BL.c ****     static void BL_SetActiveAppInMetadata(uint8 activeApp) CYSMALL \
 156:Generated_Source\PSoC5/BL.c ****                 ;
 157:Generated_Source\PSoC5/BL.c **** #endif /* (CYDEV_PROJ_TYPE == CYDEV_PROJ_TYPE_LOADABLEANDBOOTLOADER) || (0u != BL_DUAL_APP_BOOTLOAD
 158:Generated_Source\PSoC5/BL.c **** 
 159:Generated_Source\PSoC5/BL.c **** #if ((CYDEV_PROJ_TYPE == CYDEV_PROJ_TYPE_LOADABLEANDBOOTLOADER) || \
 160:Generated_Source\PSoC5/BL.c ****      (CYDEV_PROJ_TYPE == CYDEV_PROJ_TYPE_MULTIAPPBOOTLOADER) || \
 161:Generated_Source\PSoC5/BL.c ****      (CYDEV_PROJ_TYPE == CYDEV_PROJ_TYPE_LAUNCHER))
 162:Generated_Source\PSoC5/BL.c ****     static uint8 BL_GetActiveAppFromMetadata(void) CYSMALL \
 163:Generated_Source\PSoC5/BL.c ****                 ;                     
 164:Generated_Source\PSoC5/BL.c **** #endif /*((CYDEV_PROJ_TYPE == CYDEV_PROJ_TYPE_LOADABLEANDBOOTLOADER) || \
 165:Generated_Source\PSoC5/BL.c ****           (CYDEV_PROJ_TYPE == CYDEV_PROJ_TYPE_MULTIAPPBOOTLOADER) || \
 166:Generated_Source\PSoC5/BL.c ****           (CYDEV_PROJ_TYPE == CYDEV_PROJ_TYPE_LAUNCHER)) */
 167:Generated_Source\PSoC5/BL.c ****           
 168:Generated_Source\PSoC5/BL.c **** #if (CYDEV_PROJ_TYPE == CYDEV_PROJ_TYPE_LAUNCHER)
 169:Generated_Source\PSoC5/BL.c **** #if ((0u != BL_COPIER_AVAIL) && (CY_PSOC4)) 
 170:Generated_Source\PSoC5/BL.c ****     static cystatus BL_CopyRow(uint16 srcRowNum, uint16 dstRowNum) \
 171:Generated_Source\PSoC5/BL.c ****                  CYSMALL ;
 172:Generated_Source\PSoC5/BL.c ****     static void BL_Copier(void) CYSMALL ;
 173:Generated_Source\PSoC5/BL.c **** #endif /*(0u != BL_COPIER_AVAIL) && (CY_PSOC4)*/
 174:Generated_Source\PSoC5/BL.c **** #endif /*(CYDEV_PROJ_TYPE == CYDEV_PROJ_TYPE_LAUNCHER)*/
 175:Generated_Source\PSoC5/BL.c ****                        
 176:Generated_Source\PSoC5/BL.c **** 
 177:Generated_Source\PSoC5/BL.c **** /**
 178:Generated_Source\PSoC5/BL.c ****  \defgroup functions_group Functions
 179:Generated_Source\PSoC5/BL.c ****  @{
 180:Generated_Source\PSoC5/BL.c **** */
 181:Generated_Source\PSoC5/BL.c **** #if ((CYDEV_PROJ_TYPE == CYDEV_PROJ_TYPE_LOADABLEANDBOOTLOADER) || \
 182:Generated_Source\PSoC5/BL.c ****                                   (0u != BL_DUAL_APP_BOOTLOADER))                                  
 183:Generated_Source\PSoC5/BL.c **** /*******************************************************************************
 184:Generated_Source\PSoC5/BL.c **** * Function Name: BL_SetActiveAppInMetadata
 185:Generated_Source\PSoC5/BL.c **** ****************************************************************************//**
 186:Generated_Source\PSoC5/BL.c **** * \internal
 187:Generated_Source\PSoC5/BL.c **** *
 188:Generated_Source\PSoC5/BL.c **** * \brief
 189:Generated_Source\PSoC5/BL.c **** *    This function sets the active application in metadata.
 190:Generated_Source\PSoC5/BL.c **** *    The other application is set inactive. 
 191:Generated_Source\PSoC5/BL.c **** *
 192:Generated_Source\PSoC5/BL.c **** * \param activeApp
 193:Generated_Source\PSoC5/BL.c **** *   The active application number (0 or 1). If the active application number is
 194:Generated_Source\PSoC5/BL.c **** *   greater than 1, then nothing is done.  
 195:Generated_Source\PSoC5/BL.c **** *
 196:Generated_Source\PSoC5/BL.c **** * \endinternal
 197:Generated_Source\PSoC5/BL.c **** *******************************************************************************/
 198:Generated_Source\PSoC5/BL.c **** static void BL_SetActiveAppInMetadata(uint8 activeApp) CYSMALL \
 199:Generated_Source\PSoC5/BL.c ****                      
 200:Generated_Source\PSoC5/BL.c **** {
 201:Generated_Source\PSoC5/BL.c ****     if (BL_MD_BTLDB_ACTIVE_NONE > activeApp)
 202:Generated_Source\PSoC5/BL.c ****     {
ARM GAS  C:\Users\wormley\AppData\Local\Temp\ccWx7Wvt.s 			page 5


 203:Generated_Source\PSoC5/BL.c ****         uint8 CYDATA idx;    
 204:Generated_Source\PSoC5/BL.c ****     #if(!CY_PSOC4)      
 205:Generated_Source\PSoC5/BL.c ****         if (CYRET_SUCCESS != CySetTemp())
 206:Generated_Source\PSoC5/BL.c ****         {
 207:Generated_Source\PSoC5/BL.c ****             CyHalt(0x00u);
 208:Generated_Source\PSoC5/BL.c ****         }
 209:Generated_Source\PSoC5/BL.c ****     #endif  /* (!CY_PSOC4) */    
 210:Generated_Source\PSoC5/BL.c ****         for(idx = 0u; idx < BL_MAX_NUM_OF_BTLDB; idx++)
 211:Generated_Source\PSoC5/BL.c ****         {
 212:Generated_Source\PSoC5/BL.c ****             (void)BL_SetFlashByte((uint32) BL_MD_BTLDB_ACTIVE_OFFSET(idx),
 213:Generated_Source\PSoC5/BL.c ****                                                 (uint8)(idx == activeApp));
 214:Generated_Source\PSoC5/BL.c ****         }
 215:Generated_Source\PSoC5/BL.c ****     }    
 216:Generated_Source\PSoC5/BL.c **** }
 217:Generated_Source\PSoC5/BL.c **** #endif /* (CYDEV_PROJ_TYPE == CYDEV_PROJ_TYPE_LOADABLEANDBOOTLOADER) || 
 218:Generated_Source\PSoC5/BL.c ****                            (0u != BL_DUAL_APP_BOOTLOADER) */ 
 219:Generated_Source\PSoC5/BL.c **** 
 220:Generated_Source\PSoC5/BL.c **** #if ((CYDEV_PROJ_TYPE == CYDEV_PROJ_TYPE_LOADABLEANDBOOTLOADER) || \
 221:Generated_Source\PSoC5/BL.c ****      (CYDEV_PROJ_TYPE == CYDEV_PROJ_TYPE_MULTIAPPBOOTLOADER) || \
 222:Generated_Source\PSoC5/BL.c ****      (CYDEV_PROJ_TYPE == CYDEV_PROJ_TYPE_LAUNCHER))                   
 223:Generated_Source\PSoC5/BL.c **** /*******************************************************************************
 224:Generated_Source\PSoC5/BL.c **** * Function Name: BL_GetActiveAppFromMetadata
 225:Generated_Source\PSoC5/BL.c **** ****************************************************************************//**
 226:Generated_Source\PSoC5/BL.c **** * \internal
 227:Generated_Source\PSoC5/BL.c **** *
 228:Generated_Source\PSoC5/BL.c **** * \brief
 229:Generated_Source\PSoC5/BL.c **** *    This function performs reading of both metadata sections to
 230:Generated_Source\PSoC5/BL.c **** *    identify an active application. If none application is set active, 
 231:Generated_Source\PSoC5/BL.c **** *    then BL_MD_BTLDB_ACTIVE_NONE (0x02) is returned.
 232:Generated_Source\PSoC5/BL.c **** *
 233:Generated_Source\PSoC5/BL.c **** * \return
 234:Generated_Source\PSoC5/BL.c **** *   The number of active applications. In the case of error:
 235:Generated_Source\PSoC5/BL.c **** *   -  BL_MD_BTLDB_ACTIVE_NONE (0x02) - neither application is initialized;
 236:Generated_Source\PSoC5/BL.c **** *   -  BL_BOTH_ACTIVE (0x03) - both applications are set active;
 237:Generated_Source\PSoC5/BL.c **** *
 238:Generated_Source\PSoC5/BL.c **** * \endinternal 
 239:Generated_Source\PSoC5/BL.c **** *******************************************************************************/
 240:Generated_Source\PSoC5/BL.c **** static  uint8 BL_GetActiveAppFromMetadata(void) CYSMALL \
 241:Generated_Source\PSoC5/BL.c ****        
 242:Generated_Source\PSoC5/BL.c **** {
 243:Generated_Source\PSoC5/BL.c ****     uint8 CYDATA result;
 244:Generated_Source\PSoC5/BL.c ****     uint8 CYDATA app0 = (uint8)BL_GetMetadata(BL_GET_BTLDB_ACTIVE, 
 245:Generated_Source\PSoC5/BL.c ****                                                      BL_MD_BTLDB_ACTIVE_0);
 246:Generated_Source\PSoC5/BL.c ****     uint8 CYDATA app1 = (uint8)BL_GetMetadata(BL_GET_BTLDB_ACTIVE, 
 247:Generated_Source\PSoC5/BL.c ****                                                      BL_MD_BTLDB_ACTIVE_1);        
 248:Generated_Source\PSoC5/BL.c **** 
 249:Generated_Source\PSoC5/BL.c ****     if (0u != app0)                                                     
 250:Generated_Source\PSoC5/BL.c ****     {
 251:Generated_Source\PSoC5/BL.c ****         if (0u == app1)
 252:Generated_Source\PSoC5/BL.c ****         {
 253:Generated_Source\PSoC5/BL.c ****             /* app0 is active */
 254:Generated_Source\PSoC5/BL.c ****             result = BL_MD_BTLDB_ACTIVE_0;
 255:Generated_Source\PSoC5/BL.c ****         }
 256:Generated_Source\PSoC5/BL.c ****         else 
 257:Generated_Source\PSoC5/BL.c ****         {
 258:Generated_Source\PSoC5/BL.c ****             /* Both are active */
 259:Generated_Source\PSoC5/BL.c ****             result = BL_BOTH_ACTIVE;
ARM GAS  C:\Users\wormley\AppData\Local\Temp\ccWx7Wvt.s 			page 6


 260:Generated_Source\PSoC5/BL.c ****         }
 261:Generated_Source\PSoC5/BL.c ****     }
 262:Generated_Source\PSoC5/BL.c ****     else /* (0u == app0) */
 263:Generated_Source\PSoC5/BL.c ****     {
 264:Generated_Source\PSoC5/BL.c ****         if (0u != app1)
 265:Generated_Source\PSoC5/BL.c ****         {
 266:Generated_Source\PSoC5/BL.c ****             /* app1 is active */
 267:Generated_Source\PSoC5/BL.c ****             result = BL_MD_BTLDB_ACTIVE_1;
 268:Generated_Source\PSoC5/BL.c ****         }
 269:Generated_Source\PSoC5/BL.c ****         else
 270:Generated_Source\PSoC5/BL.c ****         {
 271:Generated_Source\PSoC5/BL.c ****             /* Neither app is active. */
 272:Generated_Source\PSoC5/BL.c ****             result = BL_MD_BTLDB_ACTIVE_NONE;
 273:Generated_Source\PSoC5/BL.c ****         }          
 274:Generated_Source\PSoC5/BL.c ****     }
 275:Generated_Source\PSoC5/BL.c **** 
 276:Generated_Source\PSoC5/BL.c ****     return (result);
 277:Generated_Source\PSoC5/BL.c **** }
 278:Generated_Source\PSoC5/BL.c **** #endif /*((CYDEV_PROJ_TYPE == CYDEV_PROJ_TYPE_LOADABLEANDBOOTLOADER) || \
 279:Generated_Source\PSoC5/BL.c ****           (CYDEV_PROJ_TYPE == CYDEV_PROJ_TYPE_MULTIAPPBOOTLOADER) || \
 280:Generated_Source\PSoC5/BL.c ****           (CYDEV_PROJ_TYPE == CYDEV_PROJ_TYPE_LAUNCHER)) */
 281:Generated_Source\PSoC5/BL.c ****         
 282:Generated_Source\PSoC5/BL.c **** #if (CYDEV_PROJ_TYPE == CYDEV_PROJ_TYPE_LOADABLEANDBOOTLOADER)
 283:Generated_Source\PSoC5/BL.c **** /*******************************************************************************
 284:Generated_Source\PSoC5/BL.c **** * Function Name: BL_Initialize
 285:Generated_Source\PSoC5/BL.c **** ****************************************************************************//**
 286:Generated_Source\PSoC5/BL.c **** * 
 287:Generated_Source\PSoC5/BL.c **** * \brief 
 288:Generated_Source\PSoC5/BL.c **** *   Used for in-app bootloading. This function updates the global variable 
 289:Generated_Source\PSoC5/BL.c **** *   BL_runningApp with a running application number.
 290:Generated_Source\PSoC5/BL.c **** *
 291:Generated_Source\PSoC5/BL.c **** *   If the running application number is valid (0 or 1), this function also 
 292:Generated_Source\PSoC5/BL.c **** *   sets the global variable BL_initVar that is used to determine 
 293:Generated_Source\PSoC5/BL.c **** *   if the component can process bootloader commands or not.
 294:Generated_Source\PSoC5/BL.c **** *   This function should be called once in the application project after a startup.
 295:Generated_Source\PSoC5/BL.c **** *
 296:Generated_Source\PSoC5/BL.c **** * \return
 297:Generated_Source\PSoC5/BL.c **** *   Global variables: 
 298:Generated_Source\PSoC5/BL.c **** *     - BL_runningApp
 299:Generated_Source\PSoC5/BL.c **** *     - BL_activeApp
 300:Generated_Source\PSoC5/BL.c **** *     - BL_initVar
 301:Generated_Source\PSoC5/BL.c **** *
 302:Generated_Source\PSoC5/BL.c **** * \details 
 303:Generated_Source\PSoC5/BL.c **** *   This API should be called first to be able to capture the active application 
 304:Generated_Source\PSoC5/BL.c **** *   number that is actually the running application number.
 305:Generated_Source\PSoC5/BL.c **** *******************************************************************************/
 306:Generated_Source\PSoC5/BL.c **** void BL_Initialize(void) CYSMALL \
 307:Generated_Source\PSoC5/BL.c ****                                
 308:Generated_Source\PSoC5/BL.c **** {
 309:Generated_Source\PSoC5/BL.c ****     if (BL_BOOTLOADING_NOT_INITIALIZED ==BL_initVar)
 310:Generated_Source\PSoC5/BL.c ****     {
 311:Generated_Source\PSoC5/BL.c ****         BL_activeApp = BL_GetActiveAppFromMetadata();
 312:Generated_Source\PSoC5/BL.c ****         
 313:Generated_Source\PSoC5/BL.c ****         /* Updating with number of active application */    
 314:Generated_Source\PSoC5/BL.c ****         if ((BL_MD_BTLDB_ACTIVE_NONE != BL_activeApp) &&
 315:Generated_Source\PSoC5/BL.c ****             (BL_BOTH_ACTIVE != BL_activeApp))
 316:Generated_Source\PSoC5/BL.c ****         {
ARM GAS  C:\Users\wormley\AppData\Local\Temp\ccWx7Wvt.s 			page 7


 317:Generated_Source\PSoC5/BL.c ****             BL_runningApp = BL_activeApp;
 318:Generated_Source\PSoC5/BL.c ****             
 319:Generated_Source\PSoC5/BL.c ****             /* Bootloader commands are to be processed */
 320:Generated_Source\PSoC5/BL.c ****             BL_initVar = BL_BOOTLADING_INITIALIZED;
 321:Generated_Source\PSoC5/BL.c ****         }
 322:Generated_Source\PSoC5/BL.c ****         else 
 323:Generated_Source\PSoC5/BL.c ****         {
 324:Generated_Source\PSoC5/BL.c ****             BL_runningApp = BL_RUNNING_APPLICATION_UNKNOWN;
 325:Generated_Source\PSoC5/BL.c ****         }
 326:Generated_Source\PSoC5/BL.c ****     }
 327:Generated_Source\PSoC5/BL.c **** }
 328:Generated_Source\PSoC5/BL.c **** 
 329:Generated_Source\PSoC5/BL.c **** /*****************************************************************************
 330:Generated_Source\PSoC5/BL.c **** * Function Name: BL_GetRunningAppStatus
 331:Generated_Source\PSoC5/BL.c **** **************************************************************************//**
 332:Generated_Source\PSoC5/BL.c **** *
 333:Generated_Source\PSoC5/BL.c **** * \brief 
 334:Generated_Source\PSoC5/BL.c **** *   Used for dual-app or in-app bootloader. Returns the value of the global 
 335:Generated_Source\PSoC5/BL.c **** *   variable BL_runningApp. This function should be called only after the 
 336:Generated_Source\PSoC5/BL.c **** *   BL_Initialize() has been called once.
 337:Generated_Source\PSoC5/BL.c **** *
 338:Generated_Source\PSoC5/BL.c **** * \return 
 339:Generated_Source\PSoC5/BL.c **** *   The application number that is currently being executed. Values are 0 or 1; 
 340:Generated_Source\PSoC5/BL.c **** *     other values indicate "not defined".
 341:Generated_Source\PSoC5/BL.c **** *
 342:Generated_Source\PSoC5/BL.c **** *******************************************************************************/
 343:Generated_Source\PSoC5/BL.c **** uint8 BL_GetRunningAppStatus(void) CYSMALL \
 344:Generated_Source\PSoC5/BL.c ****             
 345:Generated_Source\PSoC5/BL.c **** {  
 346:Generated_Source\PSoC5/BL.c ****     return (BL_runningApp);
 347:Generated_Source\PSoC5/BL.c **** }
 348:Generated_Source\PSoC5/BL.c **** 
 349:Generated_Source\PSoC5/BL.c **** 
 350:Generated_Source\PSoC5/BL.c **** /*******************************************************************************
 351:Generated_Source\PSoC5/BL.c **** * Function Name: BL_GetActiveAppStatus
 352:Generated_Source\PSoC5/BL.c **** ****************************************************************************//**
 353:Generated_Source\PSoC5/BL.c **** *
 354:Generated_Source\PSoC5/BL.c **** * \brief 
 355:Generated_Source\PSoC5/BL.c **** *   Used for dual-app or in-app bootloader. Returns the value of the global 
 356:Generated_Source\PSoC5/BL.c **** *   variable BL_activeApp. This function should be called only after the 
 357:Generated_Source\PSoC5/BL.c **** *   BL_Initialize() has been called once.
 358:Generated_Source\PSoC5/BL.c **** *
 359:Generated_Source\PSoC5/BL.c **** * \return 
 360:Generated_Source\PSoC5/BL.c **** *   The desired application to be executed. Values are 0 or 1; other values 
 361:Generated_Source\PSoC5/BL.c **** *     indicate "not defined".
 362:Generated_Source\PSoC5/BL.c **** *
 363:Generated_Source\PSoC5/BL.c **** *******************************************************************************/
 364:Generated_Source\PSoC5/BL.c **** uint8 BL_GetActiveAppStatus(void) CYSMALL \
 365:Generated_Source\PSoC5/BL.c ****       
 366:Generated_Source\PSoC5/BL.c **** {  
 367:Generated_Source\PSoC5/BL.c ****     /* Read active application number from metadata */
 368:Generated_Source\PSoC5/BL.c ****     BL_activeApp = BL_GetActiveAppFromMetadata();
 369:Generated_Source\PSoC5/BL.c ****     
 370:Generated_Source\PSoC5/BL.c ****     return (BL_activeApp);
 371:Generated_Source\PSoC5/BL.c **** }
 372:Generated_Source\PSoC5/BL.c **** #endif /*(CYDEV_PROJ_TYPE == CYDEV_PROJ_TYPE_LOADABLEANDBOOTLOADER)*/
 373:Generated_Source\PSoC5/BL.c **** 
ARM GAS  C:\Users\wormley\AppData\Local\Temp\ccWx7Wvt.s 			page 8


 374:Generated_Source\PSoC5/BL.c **** #if (CYDEV_PROJ_TYPE != CYDEV_PROJ_TYPE_LAUNCHER)
 375:Generated_Source\PSoC5/BL.c **** /*******************************************************************************
 376:Generated_Source\PSoC5/BL.c **** * Function Name: BL_CalcPacketChecksum
 377:Generated_Source\PSoC5/BL.c **** ****************************************************************************//**
 378:Generated_Source\PSoC5/BL.c **** *  \internal
 379:Generated_Source\PSoC5/BL.c **** *
 380:Generated_Source\PSoC5/BL.c **** *  \brief
 381:Generated_Source\PSoC5/BL.c **** *     This computes a 16-bit checksum for the provided number of bytes contained
 382:Generated_Source\PSoC5/BL.c **** *     in the provided buffer.
 383:Generated_Source\PSoC5/BL.c **** *
 384:Generated_Source\PSoC5/BL.c **** *  \param buffer
 385:Generated_Source\PSoC5/BL.c **** *     The buffer containing the data to compute the checksum.
 386:Generated_Source\PSoC5/BL.c **** *  \param size
 387:Generated_Source\PSoC5/BL.c **** *     The number of bytes in the buffer to compute the checksum.
 388:Generated_Source\PSoC5/BL.c **** *
 389:Generated_Source\PSoC5/BL.c **** *  \return 
 390:Generated_Source\PSoC5/BL.c **** *     A 16-bit checksum for the provided data.
 391:Generated_Source\PSoC5/BL.c **** *
 392:Generated_Source\PSoC5/BL.c **** *  \endinternal
 393:Generated_Source\PSoC5/BL.c **** *******************************************************************************/
 394:Generated_Source\PSoC5/BL.c **** static uint16 BL_CalcPacketChecksum(const uint8 buffer[], uint16 size) \
 395:Generated_Source\PSoC5/BL.c ****                     CYSMALL 
 396:Generated_Source\PSoC5/BL.c **** {
  27              		.loc 1 396 0
  28              		.cfi_startproc
  29              		@ args = 0, pretend = 0, frame = 0
  30              		@ frame_needed = 0, uses_anonymous_args = 0
  31              		@ link register save eliminated.
  32              	.LVL0:
 397:Generated_Source\PSoC5/BL.c ****     #if(0u != BL_PACKET_CHECKSUM_CRC)
 398:Generated_Source\PSoC5/BL.c **** 
 399:Generated_Source\PSoC5/BL.c ****         uint16 CYDATA crc = BL_CRC_CCITT_INITIAL_VALUE;
 400:Generated_Source\PSoC5/BL.c ****         uint16 CYDATA tmp;
 401:Generated_Source\PSoC5/BL.c ****         uint8  CYDATA i;
 402:Generated_Source\PSoC5/BL.c ****         uint16 CYDATA tmpIndex = size;
 403:Generated_Source\PSoC5/BL.c **** 
 404:Generated_Source\PSoC5/BL.c ****         if(0u == size)
 405:Generated_Source\PSoC5/BL.c ****         {
 406:Generated_Source\PSoC5/BL.c ****             crc = ~crc;
 407:Generated_Source\PSoC5/BL.c ****         }
 408:Generated_Source\PSoC5/BL.c ****         else
 409:Generated_Source\PSoC5/BL.c ****         {
 410:Generated_Source\PSoC5/BL.c ****             do
 411:Generated_Source\PSoC5/BL.c ****             {
 412:Generated_Source\PSoC5/BL.c ****                 tmp = buffer[tmpIndex - size];
 413:Generated_Source\PSoC5/BL.c **** 
 414:Generated_Source\PSoC5/BL.c ****                 for (i = 0u; i < 8u; i++)
 415:Generated_Source\PSoC5/BL.c ****                 {
 416:Generated_Source\PSoC5/BL.c ****                     if (0u != ((crc & 0x0001u) ^ (tmp & 0x0001u)))
 417:Generated_Source\PSoC5/BL.c ****                     {
 418:Generated_Source\PSoC5/BL.c ****                         crc = (crc >> 1u) ^ BL_CRC_CCITT_POLYNOMIAL;
 419:Generated_Source\PSoC5/BL.c ****                     }
 420:Generated_Source\PSoC5/BL.c ****                     else
 421:Generated_Source\PSoC5/BL.c ****                     {
 422:Generated_Source\PSoC5/BL.c ****                         crc >>= 1u;
 423:Generated_Source\PSoC5/BL.c ****                     }
 424:Generated_Source\PSoC5/BL.c **** 
ARM GAS  C:\Users\wormley\AppData\Local\Temp\ccWx7Wvt.s 			page 9


 425:Generated_Source\PSoC5/BL.c ****                     tmp >>= 1u;
 426:Generated_Source\PSoC5/BL.c ****                 }
 427:Generated_Source\PSoC5/BL.c **** 
 428:Generated_Source\PSoC5/BL.c ****                 size--;
 429:Generated_Source\PSoC5/BL.c ****             }
 430:Generated_Source\PSoC5/BL.c ****             while(0u != size);
 431:Generated_Source\PSoC5/BL.c **** 
 432:Generated_Source\PSoC5/BL.c ****             crc = ~crc;
 433:Generated_Source\PSoC5/BL.c ****             tmp = crc;
 434:Generated_Source\PSoC5/BL.c ****             crc = ( uint16 )(crc << 8u) | (tmp >> 8u);
 435:Generated_Source\PSoC5/BL.c ****         }
 436:Generated_Source\PSoC5/BL.c **** 
 437:Generated_Source\PSoC5/BL.c ****         return(crc);
 438:Generated_Source\PSoC5/BL.c **** 
 439:Generated_Source\PSoC5/BL.c ****     #else
 440:Generated_Source\PSoC5/BL.c **** 
 441:Generated_Source\PSoC5/BL.c ****         uint16 CYDATA sum = 0u;
  33              		.loc 1 441 0
  34 0000 0023     		movs	r3, #0
 442:Generated_Source\PSoC5/BL.c **** 
 443:Generated_Source\PSoC5/BL.c ****         while (size > 0u)
  35              		.loc 1 443 0
  36 0002 06E0     		b	.L2
  37              	.LVL1:
  38              	.L3:
 444:Generated_Source\PSoC5/BL.c ****         {
 445:Generated_Source\PSoC5/BL.c ****             sum += buffer[size - 1u];
  39              		.loc 1 445 0
  40 0004 4218     		adds	r2, r0, r1
  41 0006 12F8012C 		ldrb	r2, [r2, #-1]	@ zero_extendqisi2
  42 000a 1344     		add	r3, r3, r2
  43              	.LVL2:
  44 000c 9BB2     		uxth	r3, r3
  45              	.LVL3:
 446:Generated_Source\PSoC5/BL.c ****             size--;
  46              		.loc 1 446 0
  47 000e 0139     		subs	r1, r1, #1
  48              	.LVL4:
  49 0010 89B2     		uxth	r1, r1
  50              	.LVL5:
  51              	.L2:
 443:Generated_Source\PSoC5/BL.c ****         {
  52              		.loc 1 443 0
  53 0012 0029     		cmp	r1, #0
  54 0014 F6D1     		bne	.L3
 447:Generated_Source\PSoC5/BL.c ****         }
 448:Generated_Source\PSoC5/BL.c **** 
 449:Generated_Source\PSoC5/BL.c ****         return(( uint16 )1u + ( uint16 )(~sum));
  55              		.loc 1 449 0
  56 0016 5842     		negs	r0, r3
  57              	.LVL6:
 450:Generated_Source\PSoC5/BL.c **** 
 451:Generated_Source\PSoC5/BL.c ****     #endif /* (0u != BL_PACKET_CHECKSUM_CRC) */
 452:Generated_Source\PSoC5/BL.c **** }
  58              		.loc 1 452 0
  59 0018 80B2     		uxth	r0, r0
  60 001a 7047     		bx	lr
ARM GAS  C:\Users\wormley\AppData\Local\Temp\ccWx7Wvt.s 			page 10


  61              		.cfi_endproc
  62              	.LFE63:
  63              		.size	BL_CalcPacketChecksum, .-BL_CalcPacketChecksum
  64              		.section	.text.BL_VerifyRow,"ax",%progbits
  65              		.align	2
  66              		.thumb
  67              		.thumb_func
  68              		.type	BL_VerifyRow, %function
  69              	BL_VerifyRow:
  70              	.LFB65:
 453:Generated_Source\PSoC5/BL.c **** 
 454:Generated_Source\PSoC5/BL.c **** #if (!CY_PSOC3)
 455:Generated_Source\PSoC5/BL.c **** /*******************************************************************************
 456:Generated_Source\PSoC5/BL.c **** * Function Name: BL_InitCallback
 457:Generated_Source\PSoC5/BL.c **** ****************************************************************************//**
 458:Generated_Source\PSoC5/BL.c **** *
 459:Generated_Source\PSoC5/BL.c **** * \brief
 460:Generated_Source\PSoC5/BL.c **** *  This function initializes the callback functionality.
 461:Generated_Source\PSoC5/BL.c **** *  
 462:Generated_Source\PSoC5/BL.c **** * \param userCallback
 463:Generated_Source\PSoC5/BL.c **** *  The user's callback function.
 464:Generated_Source\PSoC5/BL.c **** *
 465:Generated_Source\PSoC5/BL.c **** *******************************************************************************/
 466:Generated_Source\PSoC5/BL.c **** void BL_InitCallback(BL_callback_type userCallback) \
 467:Generated_Source\PSoC5/BL.c ****            CYSMALL 
 468:Generated_Source\PSoC5/BL.c **** {
 469:Generated_Source\PSoC5/BL.c ****     BL_callback = userCallback;
 470:Generated_Source\PSoC5/BL.c **** }
 471:Generated_Source\PSoC5/BL.c **** #endif /* (!CY_PSOC3) */
 472:Generated_Source\PSoC5/BL.c **** 
 473:Generated_Source\PSoC5/BL.c **** 
 474:Generated_Source\PSoC5/BL.c **** #if (0u != BL_CMD_VERIFY_FLS_ROW_AVAIL)
 475:Generated_Source\PSoC5/BL.c **** /*******************************************************************************
 476:Generated_Source\PSoC5/BL.c **** * Function Name: BL_VerifyRow
 477:Generated_Source\PSoC5/BL.c **** ****************************************************************************//**
 478:Generated_Source\PSoC5/BL.c **** *  \internal
 479:Generated_Source\PSoC5/BL.c **** * 
 480:Generated_Source\PSoC5/BL.c **** *  \brief
 481:Generated_Source\PSoC5/BL.c **** *   This API performs a byte to byte verifying of the flash row against the data 
 482:Generated_Source\PSoC5/BL.c **** *   in the input buffer. 
 483:Generated_Source\PSoC5/BL.c **** *
 484:Generated_Source\PSoC5/BL.c **** *  \param flashStart 
 485:Generated_Source\PSoC5/BL.c **** *        The start address of a row in flash.
 486:Generated_Source\PSoC5/BL.c **** *  \param ramStart 
 487:Generated_Source\PSoC5/BL.c **** *        The start address of corresponding data to compare in the RAM buffer.
 488:Generated_Source\PSoC5/BL.c **** *  \param size 
 489:Generated_Source\PSoC5/BL.c **** *        The data length (common for both arrays).
 490:Generated_Source\PSoC5/BL.c **** *
 491:Generated_Source\PSoC5/BL.c **** *  \return
 492:Generated_Source\PSoC5/BL.c **** *   CYRET_SUCCESS - If all data matches.
 493:Generated_Source\PSoC5/BL.c **** *  \n BL_ERR_VERIFY - If there is any mismatch.
 494:Generated_Source\PSoC5/BL.c **** *
 495:Generated_Source\PSoC5/BL.c **** * \endinternal 
 496:Generated_Source\PSoC5/BL.c **** *******************************************************************************/
 497:Generated_Source\PSoC5/BL.c **** static uint8 BL_VerifyRow(uint32 flashStart, const uint8 ramStart[], uint16 size) \
 498:Generated_Source\PSoC5/BL.c ****                 CYSMALL 
 499:Generated_Source\PSoC5/BL.c **** {
ARM GAS  C:\Users\wormley\AppData\Local\Temp\ccWx7Wvt.s 			page 11


  71              		.loc 1 499 0
  72              		.cfi_startproc
  73              		@ args = 0, pretend = 0, frame = 0
  74              		@ frame_needed = 0, uses_anonymous_args = 0
  75              		@ link register save eliminated.
  76              	.LVL7:
  77 0000 30B4     		push	{r4, r5}
  78              		.cfi_def_cfa_offset 8
  79              		.cfi_offset 4, -8
  80              		.cfi_offset 5, -4
  81              	.LVL8:
 500:Generated_Source\PSoC5/BL.c ****     uint8 CYDATA result = CYRET_SUCCESS;
 501:Generated_Source\PSoC5/BL.c ****     uint16 CYDATA idx;
 502:Generated_Source\PSoC5/BL.c **** 
 503:Generated_Source\PSoC5/BL.c ****     for(idx = 0u; idx < size; idx++)
  82              		.loc 1 503 0
  83 0002 0023     		movs	r3, #0
  84 0004 06E0     		b	.L5
  85              	.LVL9:
  86              	.L7:
 504:Generated_Source\PSoC5/BL.c ****     {
 505:Generated_Source\PSoC5/BL.c ****         if (CY_GET_XTND_REG8((uint8 CYFAR *)(flashStart + idx)) != ramStart[idx])
  87              		.loc 1 505 0
  88 0006 1C5C     		ldrb	r4, [r3, r0]	@ zero_extendqisi2
  89 0008 E4B2     		uxtb	r4, r4
  90 000a CD5C     		ldrb	r5, [r1, r3]	@ zero_extendqisi2
  91 000c AC42     		cmp	r4, r5
  92 000e 05D1     		bne	.L8
 503:Generated_Source\PSoC5/BL.c ****     {
  93              		.loc 1 503 0 discriminator 2
  94 0010 0133     		adds	r3, r3, #1
  95              	.LVL10:
  96 0012 9BB2     		uxth	r3, r3
  97              	.LVL11:
  98              	.L5:
 503:Generated_Source\PSoC5/BL.c ****     {
  99              		.loc 1 503 0 is_stmt 0 discriminator 1
 100 0014 9342     		cmp	r3, r2
 101 0016 F6D3     		bcc	.L7
 500:Generated_Source\PSoC5/BL.c ****     uint8 CYDATA result = CYRET_SUCCESS;
 102              		.loc 1 500 0 is_stmt 1
 103 0018 0020     		movs	r0, #0
 104              	.LVL12:
 105 001a 00E0     		b	.L6
 106              	.LVL13:
 107              	.L8:
 506:Generated_Source\PSoC5/BL.c ****         {
 507:Generated_Source\PSoC5/BL.c ****             result = BL_ERR_VERIFY;
 108              		.loc 1 507 0
 109 001c 0220     		movs	r0, #2
 110              	.LVL14:
 111              	.L6:
 508:Generated_Source\PSoC5/BL.c ****             break;
 509:Generated_Source\PSoC5/BL.c ****         }    
 510:Generated_Source\PSoC5/BL.c ****     }
 511:Generated_Source\PSoC5/BL.c **** 
 512:Generated_Source\PSoC5/BL.c ****     return (result);
ARM GAS  C:\Users\wormley\AppData\Local\Temp\ccWx7Wvt.s 			page 12


 513:Generated_Source\PSoC5/BL.c **** }
 112              		.loc 1 513 0
 113 001e 30BC     		pop	{r4, r5}
 114              		.cfi_restore 5
 115              		.cfi_restore 4
 116              		.cfi_def_cfa_offset 0
 117 0020 7047     		bx	lr
 118              		.cfi_endproc
 119              	.LFE65:
 120              		.size	BL_VerifyRow, .-BL_VerifyRow
 121 0022 00BF     		.section	.text.BL_LaunchBootloadable,"ax",%progbits
 122              		.align	2
 123              		.thumb
 124              		.thumb_func
 125              		.type	BL_LaunchBootloadable, %function
 126              	BL_LaunchBootloadable:
 127              	.LFB71:
 514:Generated_Source\PSoC5/BL.c **** #endif /*(0u != BL_CMD_VERIFY_FLS_ROW_AVAIL)*/
 515:Generated_Source\PSoC5/BL.c **** #endif /*CYDEV_PROJ_TYPE != CYDEV_PROJ_TYPE_LAUNCHER*/
 516:Generated_Source\PSoC5/BL.c **** 
 517:Generated_Source\PSoC5/BL.c **** 
 518:Generated_Source\PSoC5/BL.c **** /*******************************************************************************
 519:Generated_Source\PSoC5/BL.c **** * Function Name: BL_Calc8BitSum
 520:Generated_Source\PSoC5/BL.c **** ****************************************************************************//**
 521:Generated_Source\PSoC5/BL.c **** *
 522:Generated_Source\PSoC5/BL.c **** * \brief
 523:Generated_Source\PSoC5/BL.c **** *  This computes an 8-bit sum for the provided number of bytes contained in
 524:Generated_Source\PSoC5/BL.c **** *  flash (if baseAddr equals CY_FLASH_BASE) or EEPROM (if baseAddr equals
 525:Generated_Source\PSoC5/BL.c **** *  CY_EEPROM_BASE).
 526:Generated_Source\PSoC5/BL.c **** *
 527:Generated_Source\PSoC5/BL.c **** * \param baseAddr
 528:Generated_Source\PSoC5/BL.c **** *   CY_FLASH_BASE
 529:Generated_Source\PSoC5/BL.c **** *   CY_EEPROM_BASE - applicable only for PSoC 3 / PSoC 5LP devices.
 530:Generated_Source\PSoC5/BL.c **** *
 531:Generated_Source\PSoC5/BL.c **** * \param start
 532:Generated_Source\PSoC5/BL.c **** *     The starting address to start summing data.
 533:Generated_Source\PSoC5/BL.c **** * \param size
 534:Generated_Source\PSoC5/BL.c **** *     The number of bytes to read and compute the sum.
 535:Generated_Source\PSoC5/BL.c **** *
 536:Generated_Source\PSoC5/BL.c **** * \return
 537:Generated_Source\PSoC5/BL.c **** *   An 8-bit sum for the provided data.
 538:Generated_Source\PSoC5/BL.c **** *
 539:Generated_Source\PSoC5/BL.c **** *******************************************************************************/
 540:Generated_Source\PSoC5/BL.c **** uint8 BL_Calc8BitSum(uint32 baseAddr, uint32 start, uint32 size) \
 541:Generated_Source\PSoC5/BL.c ****                 CYSMALL 
 542:Generated_Source\PSoC5/BL.c **** {
 543:Generated_Source\PSoC5/BL.c ****     uint8 CYDATA sum = 0u;
 544:Generated_Source\PSoC5/BL.c **** 
 545:Generated_Source\PSoC5/BL.c ****     #if(!CY_PSOC4)
 546:Generated_Source\PSoC5/BL.c ****         CYASSERT((baseAddr == CY_EEPROM_BASE) || (baseAddr == CY_FLASH_BASE));
 547:Generated_Source\PSoC5/BL.c ****     #else
 548:Generated_Source\PSoC5/BL.c ****         CYASSERT(baseAddr == CY_FLASH_BASE);
 549:Generated_Source\PSoC5/BL.c ****     #endif  /* (!CY_PSOC4) */
 550:Generated_Source\PSoC5/BL.c **** 
 551:Generated_Source\PSoC5/BL.c ****     while (size > 0u)
 552:Generated_Source\PSoC5/BL.c ****     {
 553:Generated_Source\PSoC5/BL.c ****         size--;
ARM GAS  C:\Users\wormley\AppData\Local\Temp\ccWx7Wvt.s 			page 13


 554:Generated_Source\PSoC5/BL.c ****         sum += CY_GET_XTND_REG8((uint8 CYFAR *)(baseAddr + start + size));
 555:Generated_Source\PSoC5/BL.c ****     }
 556:Generated_Source\PSoC5/BL.c **** 
 557:Generated_Source\PSoC5/BL.c ****     return(sum);
 558:Generated_Source\PSoC5/BL.c **** }
 559:Generated_Source\PSoC5/BL.c **** 
 560:Generated_Source\PSoC5/BL.c **** 
 561:Generated_Source\PSoC5/BL.c **** #if (CYDEV_PROJ_TYPE == CYDEV_PROJ_TYPE_LAUNCHER)
 562:Generated_Source\PSoC5/BL.c **** #if ((0u != BL_COPIER_AVAIL) && (CY_PSOC4)) 
 563:Generated_Source\PSoC5/BL.c **** /*******************************************************************************
 564:Generated_Source\PSoC5/BL.c **** * Function Name: BL_CopyRow
 565:Generated_Source\PSoC5/BL.c **** ****************************************************************************//**
 566:Generated_Source\PSoC5/BL.c **** * \internal
 567:Generated_Source\PSoC5/BL.c **** *
 568:Generated_Source\PSoC5/BL.c **** * \brief
 569:Generated_Source\PSoC5/BL.c **** *   This function performs copying of a specified row to specified 
 570:Generated_Source\PSoC5/BL.c **** *     location.
 571:Generated_Source\PSoC5/BL.c **** *
 572:Generated_Source\PSoC5/BL.c **** * \param
 573:Generated_Source\PSoC5/BL.c **** *   srcRowNum - The number of a row to copy from.
 574:Generated_Source\PSoC5/BL.c **** * \param             
 575:Generated_Source\PSoC5/BL.c **** *   dstRowNum - The number of a row to be copied to.
 576:Generated_Source\PSoC5/BL.c **** *
 577:Generated_Source\PSoC5/BL.c **** * \return
 578:Generated_Source\PSoC5/BL.c **** *   \n CYRET_SUCCESS - If everything went right. 
 579:Generated_Source\PSoC5/BL.c **** *   \n Otherwise, produce an error code indicating a problem.  
 580:Generated_Source\PSoC5/BL.c **** * 
 581:Generated_Source\PSoC5/BL.c **** * \endinternal
 582:Generated_Source\PSoC5/BL.c **** *******************************************************************************/
 583:Generated_Source\PSoC5/BL.c **** static cystatus BL_CopyRow(uint16 srcRowNum, uint16 dstRowNum) \
 584:Generated_Source\PSoC5/BL.c ****                  CYSMALL 
 585:Generated_Source\PSoC5/BL.c **** {
 586:Generated_Source\PSoC5/BL.c ****     /*Buffer for row copy procedure*/
 587:Generated_Source\PSoC5/BL.c ****     uint8  rowBuffer[CYDEV_FLS_ROW_SIZE];
 588:Generated_Source\PSoC5/BL.c ****     cystatus result = CYRET_SUCCESS;
 589:Generated_Source\PSoC5/BL.c **** 
 590:Generated_Source\PSoC5/BL.c ****     uint32 srcBaseAddr = CYDEV_FLASH_BASE + srcRowNum * CYDEV_FLS_ROW_SIZE;
 591:Generated_Source\PSoC5/BL.c ****     uint16 idx;
 592:Generated_Source\PSoC5/BL.c **** 
 593:Generated_Source\PSoC5/BL.c ****     for(idx = 0u; idx < CYDEV_FLS_ROW_SIZE; idx++)
 594:Generated_Source\PSoC5/BL.c ****     {
 595:Generated_Source\PSoC5/BL.c ****         rowBuffer[idx] = BL_GET_CODE_BYTE(srcBaseAddr + idx);
 596:Generated_Source\PSoC5/BL.c ****     }
 597:Generated_Source\PSoC5/BL.c ****     
 598:Generated_Source\PSoC5/BL.c ****     result = CySysFlashWriteRow((uint16) dstRowNum, rowBuffer);
 599:Generated_Source\PSoC5/BL.c ****     
 600:Generated_Source\PSoC5/BL.c ****     return (result);
 601:Generated_Source\PSoC5/BL.c **** }
 602:Generated_Source\PSoC5/BL.c **** 
 603:Generated_Source\PSoC5/BL.c **** /*******************************************************************************
 604:Generated_Source\PSoC5/BL.c **** * Function Name: BL_Copier
 605:Generated_Source\PSoC5/BL.c **** ****************************************************************************//**
 606:Generated_Source\PSoC5/BL.c **** *  \internal
 607:Generated_Source\PSoC5/BL.c **** *  
 608:Generated_Source\PSoC5/BL.c **** *  \brief
 609:Generated_Source\PSoC5/BL.c **** *    This option is specific for Launcher-Combination architecture only and to 
 610:Generated_Source\PSoC5/BL.c **** *    the case when there is a large communication component like BLE. To save 
ARM GAS  C:\Users\wormley\AppData\Local\Temp\ccWx7Wvt.s 			page 14


 611:Generated_Source\PSoC5/BL.c **** *    flash space for the user application, such a large communication component 
 612:Generated_Source\PSoC5/BL.c **** *    is present only in the first application (Stack application) and is "shared" 
 613:Generated_Source\PSoC5/BL.c **** *    with the second application (the user's application actually) by "Code 
 614:Generated_Source\PSoC5/BL.c **** *    sharing feature" (See code sharing and BLE Upgradable Stack example project). 
 615:Generated_Source\PSoC5/BL.c **** *
 616:Generated_Source\PSoC5/BL.c **** * \n If this option is enabled and the "need-to-copy" flag is set in the second 
 617:Generated_Source\PSoC5/BL.c **** *    application's metadata, Copier performs copying of a previously saved Stack 
 618:Generated_Source\PSoC5/BL.c **** *    application image from a "temporary location" to the app#1 flash 
 619:Generated_Source\PSoC5/BL.c **** *    space (over the current app#1).
 620:Generated_Source\PSoC5/BL.c **** *   
 621:Generated_Source\PSoC5/BL.c **** * \n Before performing the copying operation the new Stack application image 
 622:Generated_Source\PSoC5/BL.c **** *    should be received and stored at the temporary location by the current 
 623:Generated_Source\PSoC5/BL.c **** *    Stack application. The "need-to-copy" flag should be set in app#2 metadata 
 624:Generated_Source\PSoC5/BL.c **** *    indicating that copying operation is required.
 625:Generated_Source\PSoC5/BL.c **** *
 626:Generated_Source\PSoC5/BL.c **** * \n The temporary location is half of the flash space that left after Launcher 
 627:Generated_Source\PSoC5/BL.c **** *    and 2 metadata rows. This implies that Stack application should fit in 
 628:Generated_Source\PSoC5/BL.c **** *    that half of the flash space. 
 629:Generated_Source\PSoC5/BL.c **** *
 630:Generated_Source\PSoC5/BL.c **** * \n The destination for the copy operation is obtained as the first row after 
 631:Generated_Source\PSoC5/BL.c **** *    Launcher (from app#1 metadata). 
 632:Generated_Source\PSoC5/BL.c **** *
 633:Generated_Source\PSoC5/BL.c **** * \n The source of copy operation is the first row of temporary location that 
 634:Generated_Source\PSoC5/BL.c **** *    is calculated by the following formula: 
 635:Generated_Source\PSoC5/BL.c **** * \n     srcRow = (((CY_FLASH_NUMBER_ROWS - dstRow - metaRows) / 2) + dstRow);
 636:Generated_Source\PSoC5/BL.c **** * \n     where:
 637:Generated_Source\PSoC5/BL.c **** *          - dstRow - the destination's first row (mentioned above);
 638:Generated_Source\PSoC5/BL.c **** *          - CY_FLASH_NUMBER_ROWS - number of all flash rows; 
 639:Generated_Source\PSoC5/BL.c **** *          - metaRows - 2 metadata rows;   
 640:Generated_Source\PSoC5/BL.c **** *
 641:Generated_Source\PSoC5/BL.c **** * \n Copying itself means row-by-row copying of the stored application's image.
 642:Generated_Source\PSoC5/BL.c **** *    If it fails to copy some row, there is a defined number of attempts 
 643:Generated_Source\PSoC5/BL.c **** *    (BL_MAX_ATTEMPTS) to try again. In case of no success, 
 644:Generated_Source\PSoC5/BL.c **** *    a user callback function Launcher_CopierCallback() is called. 
 645:Generated_Source\PSoC5/BL.c **** *    If it is not defined, then the device is going to be halted.
 646:Generated_Source\PSoC5/BL.c **** * 
 647:Generated_Source\PSoC5/BL.c **** * \n After performing the application image copying, in case of success 
 648:Generated_Source\PSoC5/BL.c **** *    the app#2 metadata is copied in the stead of app#1 metadata and then
 649:Generated_Source\PSoC5/BL.c **** *    app#2 metadata is cleared.
 650:Generated_Source\PSoC5/BL.c **** *
 651:Generated_Source\PSoC5/BL.c **** * \n A "need-to-copy" flag is cleared just after performing the app#1 image
 652:Generated_Source\PSoC5/BL.c **** *    copying from the temporary location to avoid another consecutive 
 653:Generated_Source\PSoC5/BL.c **** *    copying operation.
 654:Generated_Source\PSoC5/BL.c **** *   
 655:Generated_Source\PSoC5/BL.c **** * \endinternal 
 656:Generated_Source\PSoC5/BL.c **** *******************************************************************************/
 657:Generated_Source\PSoC5/BL.c **** static void BL_Copier(void) CYSMALL \
 658:Generated_Source\PSoC5/BL.c ****            
 659:Generated_Source\PSoC5/BL.c **** {
 660:Generated_Source\PSoC5/BL.c ****     uint16 idx = 0u;
 661:Generated_Source\PSoC5/BL.c **** 
 662:Generated_Source\PSoC5/BL.c ****     /* Number of attempts to perform copying again */
 663:Generated_Source\PSoC5/BL.c ****     uint8 copierAttempts;
 664:Generated_Source\PSoC5/BL.c ****     
 665:Generated_Source\PSoC5/BL.c ****     /* "need-to-copy" flag from second application metadata */
 666:Generated_Source\PSoC5/BL.c ****     uint8 copyFlag = BL_GetMetadata(BL_GET_BTLDB_COPY_FLAG, BL_MD_BTLDB_ACTIVE_1);
 667:Generated_Source\PSoC5/BL.c **** 
ARM GAS  C:\Users\wormley\AppData\Local\Temp\ccWx7Wvt.s 			page 15


 668:Generated_Source\PSoC5/BL.c ****     /* Buffer to temporary hold metadata before flashing */
 669:Generated_Source\PSoC5/BL.c ****     uint8 metaBuf[CYDEV_FLS_ROW_SIZE];
 670:Generated_Source\PSoC5/BL.c **** 
 671:Generated_Source\PSoC5/BL.c ****     /* Launcher's last row number */
 672:Generated_Source\PSoC5/BL.c ****     uint16 launcherLastRow = BL_GetMetadata(BL_GET_BTLDR_LAST_ROW, BL_MD_BTLDB_ACTIVE_0);
 673:Generated_Source\PSoC5/BL.c **** 
 674:Generated_Source\PSoC5/BL.c ****     /* Calculating destination's start row number (first row of app#1) */
 675:Generated_Source\PSoC5/BL.c ****     uint16 dstRow = launcherLastRow + 1u;
 676:Generated_Source\PSoC5/BL.c ****     
 677:Generated_Source\PSoC5/BL.c ****     /* Calculating the source's/temporary location's start row number */
 678:Generated_Source\PSoC5/BL.c ****     uint16 srcRow = ((((CY_FLASH_NUMBER_ROWS - dstRow - 2u) + 1u) >> 1u) + dstRow); 
 679:Generated_Source\PSoC5/BL.c ****     
 680:Generated_Source\PSoC5/BL.c ****     /* Taking length from app#2's metadata*/
 681:Generated_Source\PSoC5/BL.c ****     uint32 srcLength = BL_GetMetadata(BL_GET_BTLDB_LENGTH, BL_MD_BTLDB_ACTIVE_1);
 682:Generated_Source\PSoC5/BL.c **** 
 683:Generated_Source\PSoC5/BL.c ****     /* Copy operation status initialization */
 684:Generated_Source\PSoC5/BL.c ****     cystatus copyStatus = CYRET_SUCCESS;
 685:Generated_Source\PSoC5/BL.c ****     
 686:Generated_Source\PSoC5/BL.c ****     /* Calculating number of rows for copying */
 687:Generated_Source\PSoC5/BL.c ****     uint16 numberOfRows = srcLength / CYDEV_FLS_ROW_SIZE;
 688:Generated_Source\PSoC5/BL.c ****     
 689:Generated_Source\PSoC5/BL.c ****     if (0u != (srcLength % CYDEV_FLS_ROW_SIZE))
 690:Generated_Source\PSoC5/BL.c ****     {
 691:Generated_Source\PSoC5/BL.c ****         numberOfRows++;
 692:Generated_Source\PSoC5/BL.c ****     }
 693:Generated_Source\PSoC5/BL.c ****         
 694:Generated_Source\PSoC5/BL.c ****     /*************************************************************************
 695:Generated_Source\PSoC5/BL.c ****     * Copying the number of rows from source (temporary location) to destination.
 696:Generated_Source\PSoC5/BL.c ****     * If the operation is unsuccessful, there will be a few more attempts to
 697:Generated_Source\PSoC5/BL.c ****     * perform the copying operation (a number is defined by BL_MAX_ATTEMPTS)
 698:Generated_Source\PSoC5/BL.c ****     ***************************************************************************/
 699:Generated_Source\PSoC5/BL.c ****     for(idx = 0; idx < numberOfRows; idx++)
 700:Generated_Source\PSoC5/BL.c ****     {
 701:Generated_Source\PSoC5/BL.c ****         copierAttempts = BL_MAX_ATTEMPTS;
 702:Generated_Source\PSoC5/BL.c ****         
 703:Generated_Source\PSoC5/BL.c ****         do 
 704:Generated_Source\PSoC5/BL.c ****         {
 705:Generated_Source\PSoC5/BL.c ****             /* Copying row */
 706:Generated_Source\PSoC5/BL.c ****             copyStatus = BL_CopyRow(srcRow + idx, dstRow + idx);
 707:Generated_Source\PSoC5/BL.c ****             
 708:Generated_Source\PSoC5/BL.c ****             /* Decrementing counter of attempts to repeat copying operation */
 709:Generated_Source\PSoC5/BL.c ****             copierAttempts--;       
 710:Generated_Source\PSoC5/BL.c ****         } while ((CYRET_SUCCESS != copyStatus) && (0u != copierAttempts));
 711:Generated_Source\PSoC5/BL.c **** 
 712:Generated_Source\PSoC5/BL.c ****         
 713:Generated_Source\PSoC5/BL.c ****         /*************************************************************************
 714:Generated_Source\PSoC5/BL.c ****         * If a problem occurs, when a row can't be copied, "CopyFlag" should be
 715:Generated_Source\PSoC5/BL.c ****         * cleared to prevent the recurrent copying that might follow the software reset.        
 716:Generated_Source\PSoC5/BL.c ****         ***************************************************************************/
 717:Generated_Source\PSoC5/BL.c ****         if (CYRET_SUCCESS != copyStatus)
 718:Generated_Source\PSoC5/BL.c ****         {
 719:Generated_Source\PSoC5/BL.c ****             /* Clear copy flag in metadata#1 */
 720:Generated_Source\PSoC5/BL.c ****             BL_SetFlashByte(BL_MD_BTLDB_COPY_FLAG_OFFSET(BL_MD_BTLDB_ACTIVE_1),
 721:Generated_Source\PSoC5/BL.c ****                                          (copyFlag & (~BL_NEED_TO_COPY_SET_BIT)));
 722:Generated_Source\PSoC5/BL.c ****                 
 723:Generated_Source\PSoC5/BL.c ****             /* Callback macro definition */
 724:Generated_Source\PSoC5/BL.c ****             #if (0u != LAUNCHER_COPIER_CALLBACK)
ARM GAS  C:\Users\wormley\AppData\Local\Temp\ccWx7Wvt.s 			page 16


 725:Generated_Source\PSoC5/BL.c ****                 BL_CopierCallback();
 726:Generated_Source\PSoC5/BL.c ****             #endif /* 0u != LAUNCHER_COPIER_CALLBACK */ 
 727:Generated_Source\PSoC5/BL.c ****             
 728:Generated_Source\PSoC5/BL.c ****             /*************************************************************************
 729:Generated_Source\PSoC5/BL.c ****             * If the copying operation was unsuccessful after certain number of attempts
 730:Generated_Source\PSoC5/BL.c ****             * and BL_CopierCallback() is either undefined or returns, then the
 731:Generated_Source\PSoC5/BL.c ****             * device should be halted.
 732:Generated_Source\PSoC5/BL.c ****             *************************************************************************/
 733:Generated_Source\PSoC5/BL.c ****             CyHalt(0x00u);
 734:Generated_Source\PSoC5/BL.c ****         }
 735:Generated_Source\PSoC5/BL.c ****     }    
 736:Generated_Source\PSoC5/BL.c ****     
 737:Generated_Source\PSoC5/BL.c ****     /* Copy metadata app#2 -> app#1*/
 738:Generated_Source\PSoC5/BL.c ****     if (CYRET_SUCCESS == copyStatus)
 739:Generated_Source\PSoC5/BL.c ****     {
 740:Generated_Source\PSoC5/BL.c ****         /******************************************************************************
 741:Generated_Source\PSoC5/BL.c ****         *                               Metadata#1 update             
 742:Generated_Source\PSoC5/BL.c ****         ******************************************************************************/
 743:Generated_Source\PSoC5/BL.c ****         /* Getting start address of metadata #2 */
 744:Generated_Source\PSoC5/BL.c ****         uint32 metaStartAddr = BL_MD_BASE_ADDR(BL_MD_BTLDB_ACTIVE_1) + 
 745:Generated_Source\PSoC5/BL.c ****                                BL_MD_SIZEOF - CYDEV_FLS_ROW_SIZE; 
 746:Generated_Source\PSoC5/BL.c ****         
 747:Generated_Source\PSoC5/BL.c ****         /* Read all data from metadata #2 */
 748:Generated_Source\PSoC5/BL.c ****         for (idx = 0u; idx < CYDEV_FLS_ROW_SIZE; idx++)
 749:Generated_Source\PSoC5/BL.c ****         {
 750:Generated_Source\PSoC5/BL.c ****             metaBuf[idx] = BL_GET_CODE_BYTE(metaStartAddr + idx);
 751:Generated_Source\PSoC5/BL.c ****         }
 752:Generated_Source\PSoC5/BL.c ****         
 753:Generated_Source\PSoC5/BL.c ****         /* Setting 'Copier available' flag (copyFlag field) in buffer to be stored in metadata#1 */
 754:Generated_Source\PSoC5/BL.c ****         metaBuf[BL_MD_BUFFER_START_OFFSET + BL_MD_COPY_FLAG_BYTE_OFFSET] = BL_COPIER_SUPPORT_SET_BI
 755:Generated_Source\PSoC5/BL.c **** 
 756:Generated_Source\PSoC5/BL.c ****         /* Set active app#1 */
 757:Generated_Source\PSoC5/BL.c ****         BL_activeApp = BL_MD_BTLDB_ACTIVE_0;
 758:Generated_Source\PSoC5/BL.c ****         
 759:Generated_Source\PSoC5/BL.c ****         /* Setting app#1 as active application in buffer to be stored in metadata#1 */
 760:Generated_Source\PSoC5/BL.c ****         metaBuf[BL_MD_BUFFER_START_OFFSET + BL_MD_ACTIVE_APP_BYTE_OFFSET] = 0x01u;      
 761:Generated_Source\PSoC5/BL.c **** 
 762:Generated_Source\PSoC5/BL.c ****         /* Setting app#1 as valid for 'Fast validation' to be stored in metadata#1 */
 763:Generated_Source\PSoC5/BL.c ****         metaBuf[BL_MD_BUFFER_START_OFFSET + BL_MD_FAST_VALID_BYTE_OFFSET] = 0x01u;      
 764:Generated_Source\PSoC5/BL.c **** 
 765:Generated_Source\PSoC5/BL.c ****         /* Update metadata#1 in flash */
 766:Generated_Source\PSoC5/BL.c ****         copyStatus = CySysFlashWriteRow((uint16) (CY_FLASH_NUMBER_ROWS - 1u), metaBuf);  
 767:Generated_Source\PSoC5/BL.c **** 
 768:Generated_Source\PSoC5/BL.c ****         /******************************************************************************
 769:Generated_Source\PSoC5/BL.c ****         *                               Metadata#2 update  
 770:Generated_Source\PSoC5/BL.c ****         * Clear the whole buffer for metadata#2, which will make it invalid. 
 771:Generated_Source\PSoC5/BL.c ****         * The 'Need-to-copy' flag will be cleared and app#2 will be set as non-active. 
 772:Generated_Source\PSoC5/BL.c ****         *******************************************************************************/
 773:Generated_Source\PSoC5/BL.c ****         (void) memset(&metaBuf, 0x00u, sizeof(metaBuf));
 774:Generated_Source\PSoC5/BL.c ****         
 775:Generated_Source\PSoC5/BL.c ****         /* Updating metadata#2 in flash */
 776:Generated_Source\PSoC5/BL.c ****         copyStatus |= CySysFlashWriteRow((uint16) (CY_FLASH_NUMBER_ROWS - 2u), metaBuf);          
 777:Generated_Source\PSoC5/BL.c ****     }
 778:Generated_Source\PSoC5/BL.c ****     
 779:Generated_Source\PSoC5/BL.c ****     if (CYRET_SUCCESS == copyStatus)
 780:Generated_Source\PSoC5/BL.c ****     {
 781:Generated_Source\PSoC5/BL.c ****         /* Schedule*/
ARM GAS  C:\Users\wormley\AppData\Local\Temp\ccWx7Wvt.s 			page 17


 782:Generated_Source\PSoC5/BL.c ****         BL_SET_RUN_TYPE(BL_SCHEDULE_BTLDB);
 783:Generated_Source\PSoC5/BL.c **** 
 784:Generated_Source\PSoC5/BL.c ****         /* Software reset */
 785:Generated_Source\PSoC5/BL.c ****         CySoftwareReset();
 786:Generated_Source\PSoC5/BL.c ****     }
 787:Generated_Source\PSoC5/BL.c ****     else
 788:Generated_Source\PSoC5/BL.c ****     {
 789:Generated_Source\PSoC5/BL.c ****         /* Halt device */
 790:Generated_Source\PSoC5/BL.c ****         CyHalt(0x00u);
 791:Generated_Source\PSoC5/BL.c ****     }
 792:Generated_Source\PSoC5/BL.c **** }
 793:Generated_Source\PSoC5/BL.c **** #endif /*(0u != BL_COPIER_AVAIL) && (CY_PSOC4)*/
 794:Generated_Source\PSoC5/BL.c **** #endif /*(CYDEV_PROJ_TYPE == CYDEV_PROJ_TYPE_LAUNCHER)*/
 795:Generated_Source\PSoC5/BL.c **** 
 796:Generated_Source\PSoC5/BL.c **** 
 797:Generated_Source\PSoC5/BL.c **** /*******************************************************************************
 798:Generated_Source\PSoC5/BL.c **** * Function Name: BL_Start
 799:Generated_Source\PSoC5/BL.c **** ****************************************************************************//**
 800:Generated_Source\PSoC5/BL.c **** * \brief
 801:Generated_Source\PSoC5/BL.c **** *  This function is called to execute the following algorithm:
 802:Generated_Source\PSoC5/BL.c **** *
 803:Generated_Source\PSoC5/BL.c **** * -    Validate the Bootloadable application for the Classic Single-app Bootloader or 
 804:Generated_Source\PSoC5/BL.c **** *   both Bootloadable/Combination applications for the Classic Dual-app Bootloader/
 805:Generated_Source\PSoC5/BL.c **** *   Launch-only Bootloader (Launcher for short) respectively.
 806:Generated_Source\PSoC5/BL.c **** *  
 807:Generated_Source\PSoC5/BL.c **** * -    For the Classic Single-app Bootloader: if the Bootloadable application is valid, 
 808:Generated_Source\PSoC5/BL.c **** *   then the flow switches to it after a software reset. Otherwise it stays in 
 809:Generated_Source\PSoC5/BL.c **** *   the Bootloader, waiting for a command(s) from the host.
 810:Generated_Source\PSoC5/BL.c **** * 
 811:Generated_Source\PSoC5/BL.c **** * -    For the Classic Dual-app Bootloader: the flow acts according to the switching table 
 812:Generated_Source\PSoC5/BL.c **** *  (see in the code below) and enabled/disabled options (for instance, auto-switching).
 813:Generated_Source\PSoC5/BL.c **** *   NOTE If the valid Bootloadable application is identified, then the control is passed 
 814:Generated_Source\PSoC5/BL.c **** *   to it after a software reset. Otherwise it stays in the Classic Dual-app Bootloader 
 815:Generated_Source\PSoC5/BL.c **** *   waiting for a command(s) from the host.
 816:Generated_Source\PSoC5/BL.c **** * 
 817:Generated_Source\PSoC5/BL.c **** * -    For the Launcher: the flow acts according to the switching table (see below) and 
 818:Generated_Source\PSoC5/BL.c **** *   enabled/disabled options. NOTE If the valid Combination application is identified, then 
 819:Generated_Source\PSoC5/BL.c **** *   the control is passed to it after a software reset. Otherwise it stays in the Launcher 
 820:Generated_Source\PSoC5/BL.c **** *   forever.
 821:Generated_Source\PSoC5/BL.c **** * 
 822:Generated_Source\PSoC5/BL.c **** * -    Validate the Bootloader/Launcher application(s) (design-time configurable, Bootloader 
 823:Generated_Source\PSoC5/BL.c **** *   application validation option of the component customizer).
 824:Generated_Source\PSoC5/BL.c **** * 
 825:Generated_Source\PSoC5/BL.c **** * -    Run a communication subroutine (design-time configurable, the Wait for command 
 826:Generated_Source\PSoC5/BL.c **** *   option of the component customizer). NOTE This is NOT applicable for the Launcher.
 827:Generated_Source\PSoC5/BL.c **** *
 828:Generated_Source\PSoC5/BL.c **** * -    Schedule the Bootloadable and reset the device.
 829:Generated_Source\PSoC5/BL.c **** *
 830:Generated_Source\PSoC5/BL.c **** *  \ref page_switching_logic
 831:Generated_Source\PSoC5/BL.c **** *
 832:Generated_Source\PSoC5/BL.c **** * \return
 833:Generated_Source\PSoC5/BL.c **** *  This method will never return. It will either load a new application and
 834:Generated_Source\PSoC5/BL.c **** *  reset the device or jump directly to the existing application. The CPU is
 835:Generated_Source\PSoC5/BL.c **** *  halted, if the validation fails when the "Bootloader application validation" 
 836:Generated_Source\PSoC5/BL.c **** *  option is enabled.
 837:Generated_Source\PSoC5/BL.c **** *  PSoC 3/PSoC 5: The CPU is halted if flash initialization fails.
 838:Generated_Source\PSoC5/BL.c **** *
ARM GAS  C:\Users\wormley\AppData\Local\Temp\ccWx7Wvt.s 			page 18


 839:Generated_Source\PSoC5/BL.c **** * \details
 840:Generated_Source\PSoC5/BL.c **** *  If the "Bootloader application validation" option is enabled and this method
 841:Generated_Source\PSoC5/BL.c **** *  determines that the Bootloader application itself is corrupt, this method
 842:Generated_Source\PSoC5/BL.c **** *  will not return, instead it will simply hang the application.   
 843:Generated_Source\PSoC5/BL.c **** *******************************************************************************/
 844:Generated_Source\PSoC5/BL.c **** void BL_Start(void) CYSMALL 
 845:Generated_Source\PSoC5/BL.c **** {
 846:Generated_Source\PSoC5/BL.c **** 
 847:Generated_Source\PSoC5/BL.c **** #if (CYDEV_PROJ_TYPE != CYDEV_PROJ_TYPE_LOADABLEANDBOOTLOADER)
 848:Generated_Source\PSoC5/BL.c **** 
 849:Generated_Source\PSoC5/BL.c ****     #if(0u != BL_DUAL_APP_BOOTLOADER)
 850:Generated_Source\PSoC5/BL.c ****         cystatus app0Status = CYRET_BAD_DATA;
 851:Generated_Source\PSoC5/BL.c ****         cystatus app1Status = CYRET_BAD_DATA;  
 852:Generated_Source\PSoC5/BL.c ****     #endif /*0u != BL_DUAL_APP_BOOTLOADER*/
 853:Generated_Source\PSoC5/BL.c ****     
 854:Generated_Source\PSoC5/BL.c ****     cystatus validApp  = CYRET_BAD_DATA;
 855:Generated_Source\PSoC5/BL.c **** 
 856:Generated_Source\PSoC5/BL.c ****     #if(0u != BL_BOOTLOADER_APP_VALIDATION)
 857:Generated_Source\PSoC5/BL.c ****         uint8 CYDATA calcedChecksum;
 858:Generated_Source\PSoC5/BL.c ****     #endif    /* (0u != BL_BOOTLOADER_APP_VALIDATION) */
 859:Generated_Source\PSoC5/BL.c **** 
 860:Generated_Source\PSoC5/BL.c ****     #if(!CY_PSOC4)
 861:Generated_Source\PSoC5/BL.c ****         #if(0u != BL_FAST_APP_VALIDATION)
 862:Generated_Source\PSoC5/BL.c ****             /* Initialize flash subsystem for non-PSoC 4 devices */
 863:Generated_Source\PSoC5/BL.c ****             if (CYRET_SUCCESS != CySetTemp())
 864:Generated_Source\PSoC5/BL.c ****             {
 865:Generated_Source\PSoC5/BL.c ****                 CyHalt(0x00u);
 866:Generated_Source\PSoC5/BL.c ****             }
 867:Generated_Source\PSoC5/BL.c **** 
 868:Generated_Source\PSoC5/BL.c ****             #if !defined(CY_BOOT_VERSION)
 869:Generated_Source\PSoC5/BL.c ****                 /* Not required with cy_boot 4.20 */
 870:Generated_Source\PSoC5/BL.c ****                 if (CYRET_SUCCESS != CySetFlashEEBuffer(BL_flashBuffer))
 871:Generated_Source\PSoC5/BL.c ****                 {
 872:Generated_Source\PSoC5/BL.c ****                     CyHalt(0x00u);
 873:Generated_Source\PSoC5/BL.c ****                 }
 874:Generated_Source\PSoC5/BL.c **** 
 875:Generated_Source\PSoC5/BL.c ****                 uint8 CYXDATA BL_flashBuffer[BL_FROW_SIZE];
 876:Generated_Source\PSoC5/BL.c ****             #endif /* !defined(CY_BOOT_VERSION) */
 877:Generated_Source\PSoC5/BL.c ****         #endif  /* (0u != BL_FAST_APP_VALIDATION) */
 878:Generated_Source\PSoC5/BL.c ****     #endif  /* (!CY_PSOC4) */
 879:Generated_Source\PSoC5/BL.c **** 
 880:Generated_Source\PSoC5/BL.c ****     #if (CYDEV_PROJ_TYPE == CYDEV_PROJ_TYPE_LAUNCHER) 
 881:Generated_Source\PSoC5/BL.c ****     #if ((0u != BL_COPIER_AVAIL) && (CY_PSOC4))
 882:Generated_Source\PSoC5/BL.c ****         /* Checking "need-to-copy" flag in metadata#1. If it is set, then copy operation is require
 883:Generated_Source\PSoC5/BL.c ****         uint8 needToCopyFlag = BL_GetMetadata(BL_GET_BTLDB_COPY_FLAG, 
 884:Generated_Source\PSoC5/BL.c ****                                                         BL_MD_BTLDB_ACTIVE_1);                     
 885:Generated_Source\PSoC5/BL.c ****         
 886:Generated_Source\PSoC5/BL.c ****         /* Checking "Need to copy" flag in metadata#1 */
 887:Generated_Source\PSoC5/BL.c ****         if (0u != (needToCopyFlag & BL_NEED_TO_COPY_MASK))
 888:Generated_Source\PSoC5/BL.c ****         {
 889:Generated_Source\PSoC5/BL.c ****             /* Note that this function never returns */
 890:Generated_Source\PSoC5/BL.c ****             BL_Copier();
 891:Generated_Source\PSoC5/BL.c ****         }
 892:Generated_Source\PSoC5/BL.c ****     #endif  /* (CYDEV_PROJ_TYPE == CYDEV_PROJ_TYPE_LAUNCHER) */
 893:Generated_Source\PSoC5/BL.c ****     #endif  /* (0u != BL_COPIER_AVAIL) && (CY_PSOC4)*/
 894:Generated_Source\PSoC5/BL.c ****         
 895:Generated_Source\PSoC5/BL.c ****     /* Identify active Bootloadable/Combination application */
ARM GAS  C:\Users\wormley\AppData\Local\Temp\ccWx7Wvt.s 			page 19


 896:Generated_Source\PSoC5/BL.c ****     #if (0u != BL_DUAL_APP_BOOTLOADER)
 897:Generated_Source\PSoC5/BL.c ****         app0Status = BL_ValidateBootloadable(BL_MD_BTLDB_ACTIVE_0);
 898:Generated_Source\PSoC5/BL.c ****         app1Status = BL_ValidateBootloadable(BL_MD_BTLDB_ACTIVE_1);  
 899:Generated_Source\PSoC5/BL.c **** 
 900:Generated_Source\PSoC5/BL.c ****         /* Assumes no active Bootloadable application. Bootloader is active. */
 901:Generated_Source\PSoC5/BL.c ****         BL_activeApp = BL_MD_BTLDB_ACTIVE_NONE;
 902:Generated_Source\PSoC5/BL.c **** 
 903:Generated_Source\PSoC5/BL.c ****         /* Bootloadable app#1 is active */
 904:Generated_Source\PSoC5/BL.c ****         if(BL_GetMetadata(BL_GET_BTLDB_ACTIVE, BL_MD_BTLDB_ACTIVE_0) == \
 905:Generated_Source\PSoC5/BL.c ****                                                                            BL_MD_BTLDB_IS_ACTIVE)
 906:Generated_Source\PSoC5/BL.c ****         {
 907:Generated_Source\PSoC5/BL.c ****             /**************************************************************************************
 908:Generated_Source\PSoC5/BL.c ****             * -------------------------------------------------------------------------------------
 909:Generated_Source\PSoC5/BL.c ****             * |      |      app#1     |      app#2     |        Classic Dual-app       |     Launch
 910:Generated_Source\PSoC5/BL.c ****             * | Case |---------------------------------|          Bootloader           |           
 911:Generated_Source\PSoC5/BL.c ****             * |      | Active | Valid | Active | Valid |                               |           
 912:Generated_Source\PSoC5/BL.c ****             * |------------------------------------------------------------------------------------
 913:Generated_Source\PSoC5/BL.c ****             * |  9   |    1   |   0   |   0    |   0   | Bootloader                    | Launcher  
 914:Generated_Source\PSoC5/BL.c ****             * |  10  |    1   |   0   |   0    |   1   | app#2, except if auto-app     | app#2     
 915:Generated_Source\PSoC5/BL.c ****             * |      |        |       |        |       | switching is disabled, then   |           
 916:Generated_Source\PSoC5/BL.c ****             * |      |        |       |        |       | stay in Bootloader            |           
 917:Generated_Source\PSoC5/BL.c ****             * |  11  |    1   |   0   |   1    |   0   | Bootloader                    | Launcher  
 918:Generated_Source\PSoC5/BL.c ****             * |  12  |    1   |   0   |   1    |   1   | app#2                         | app#2     
 919:Generated_Source\PSoC5/BL.c ****             * |  13  |    1   |   1   |   0    |   0   | app#1                         | app#1     
 920:Generated_Source\PSoC5/BL.c ****             * |  14  |    1   |   1   |   0    |   1   | app#1                         | app#1     
 921:Generated_Source\PSoC5/BL.c ****             * |  15  |    1   |   1   |   1    |   0   | app#1                         | app#1     
 922:Generated_Source\PSoC5/BL.c ****             * |  16  |    1   |   1   |   1    |   1   | app#1                         | app#1     
 923:Generated_Source\PSoC5/BL.c ****             * -------------------------------------------------------------------------------------
 924:Generated_Source\PSoC5/BL.c ****             ***************************************************************************************
 925:Generated_Source\PSoC5/BL.c ****             if (CYRET_SUCCESS == app0Status)
 926:Generated_Source\PSoC5/BL.c ****             {
 927:Generated_Source\PSoC5/BL.c ****                 /* Cases # 13,  14, 15, and 16 */
 928:Generated_Source\PSoC5/BL.c ****                 BL_activeApp = BL_MD_BTLDB_ACTIVE_0;
 929:Generated_Source\PSoC5/BL.c ****                 validApp = CYRET_SUCCESS;
 930:Generated_Source\PSoC5/BL.c ****             }
 931:Generated_Source\PSoC5/BL.c ****             else /*Bootloadable app#1 is not valid*/
 932:Generated_Source\PSoC5/BL.c ****             {
 933:Generated_Source\PSoC5/BL.c ****                 #if (((1u == BL_AUTO_SWITCHING_AVAIL) &&  \
 934:Generated_Source\PSoC5/BL.c ****                       (CYDEV_PROJ_TYPE == CYDEV_PROJ_TYPE_MULTIAPPBOOTLOADER)) || \
 935:Generated_Source\PSoC5/BL.c ****                       (CYDEV_PROJ_TYPE == CYDEV_PROJ_TYPE_LAUNCHER)) 
 936:Generated_Source\PSoC5/BL.c ****                 if (CYRET_SUCCESS == app1Status )
 937:Generated_Source\PSoC5/BL.c ****                 {
 938:Generated_Source\PSoC5/BL.c ****                     /* Cases # 10 and 12 */
 939:Generated_Source\PSoC5/BL.c ****                     BL_activeApp = BL_MD_BTLDB_ACTIVE_1;
 940:Generated_Source\PSoC5/BL.c ****                     validApp = CYRET_SUCCESS;
 941:Generated_Source\PSoC5/BL.c ****                 }
 942:Generated_Source\PSoC5/BL.c ****                 #endif /*((1u == BL_AUTO_SWITCHING_AVAIL) && 
 943:Generated_Source\PSoC5/BL.c ****                           (CYDEV_PROJ_TYPE == CYDEV_PROJ_TYPE_MULTIAPPBOOTLOADER)) || 
 944:Generated_Source\PSoC5/BL.c ****                           (CYDEV_PROJ_TYPE == CYDEV_PROJ_TYPE_LAUNCHER)*/
 945:Generated_Source\PSoC5/BL.c ****             }
 946:Generated_Source\PSoC5/BL.c ****         }
 947:Generated_Source\PSoC5/BL.c **** 
 948:Generated_Source\PSoC5/BL.c ****         /*  Active Bootloadable application is not identified */
 949:Generated_Source\PSoC5/BL.c ****         if(BL_activeApp == BL_MD_BTLDB_ACTIVE_NONE)
 950:Generated_Source\PSoC5/BL.c ****         {
 951:Generated_Source\PSoC5/BL.c ****             /**************************************************************************************
 952:Generated_Source\PSoC5/BL.c ****             * -------------------------------------------------------------------------------------
ARM GAS  C:\Users\wormley\AppData\Local\Temp\ccWx7Wvt.s 			page 20


 953:Generated_Source\PSoC5/BL.c ****             * |      |       app#1    |       app#2    |        Classic Dual-app       |     Launch
 954:Generated_Source\PSoC5/BL.c ****             * | Case |---------------------------------|          Bootloader           |           
 955:Generated_Source\PSoC5/BL.c ****             * |      | Active | Valid | Active | Valid |                               |           
 956:Generated_Source\PSoC5/BL.c ****             * |------|-----------------------------------------------------------------------------
 957:Generated_Source\PSoC5/BL.c ****             * |  1   |    0   |   0   |   0    |   0   | Bootloader                    | Launcher  
 958:Generated_Source\PSoC5/BL.c ****             * |  2   |    0   |   0   |   0    |   1   | Bootloader                    | app#2     
 959:Generated_Source\PSoC5/BL.c ****             * |  3   |    0   |   0   |   1    |   0   | Bootloader                    | Launcher  
 960:Generated_Source\PSoC5/BL.c ****             * |  4   |    0   |   0   |   1    |   1   | app#2                         | app#2     
 961:Generated_Source\PSoC5/BL.c ****             * |  5   |    0   |   1   |   0    |   0   | Bootloader                    | app#1     
 962:Generated_Source\PSoC5/BL.c ****             * |  6   |    0   |   1   |   0    |   1   | Bootloader                    | app#1     
 963:Generated_Source\PSoC5/BL.c ****             * |  7   |    0   |   1   |   1    |   0   | app#1, except if auto-app     | app#1     
 964:Generated_Source\PSoC5/BL.c ****             * |      |        |       |        |       | switching is disabled, then   |           
 965:Generated_Source\PSoC5/BL.c ****             * |      |        |       |        |       | stay in Bootloader            |           
 966:Generated_Source\PSoC5/BL.c ****             * |  8   |    0   |   1   |   1    |   1   | app#2                         | app#2     
 967:Generated_Source\PSoC5/BL.c ****             * -------------------------------------------------------------------------------------
 968:Generated_Source\PSoC5/BL.c ****             ***************************************************************************************
 969:Generated_Source\PSoC5/BL.c ****             if (BL_GetMetadata(BL_GET_BTLDB_ACTIVE, 1u) ==
 970:Generated_Source\PSoC5/BL.c ****                     BL_MD_BTLDB_IS_ACTIVE)
 971:Generated_Source\PSoC5/BL.c ****             {
 972:Generated_Source\PSoC5/BL.c ****                 /* Cases # 3, 4, 7, and 8 */
 973:Generated_Source\PSoC5/BL.c ****                 if (CYRET_SUCCESS == app1Status)
 974:Generated_Source\PSoC5/BL.c ****                 {
 975:Generated_Source\PSoC5/BL.c ****                     /* Cases # 4 and 8 */
 976:Generated_Source\PSoC5/BL.c ****                     BL_activeApp = BL_MD_BTLDB_ACTIVE_1;
 977:Generated_Source\PSoC5/BL.c ****                     validApp = CYRET_SUCCESS;
 978:Generated_Source\PSoC5/BL.c ****                 }
 979:Generated_Source\PSoC5/BL.c ****                 else
 980:Generated_Source\PSoC5/BL.c ****                 {
 981:Generated_Source\PSoC5/BL.c ****                  #if (((1u == BL_AUTO_SWITCHING_AVAIL) && \
 982:Generated_Source\PSoC5/BL.c ****                        (CYDEV_PROJ_TYPE == CYDEV_PROJ_TYPE_MULTIAPPBOOTLOADER)) \
 983:Generated_Source\PSoC5/BL.c ****                     || (CYDEV_PROJ_TYPE == CYDEV_PROJ_TYPE_LAUNCHER)) 
 984:Generated_Source\PSoC5/BL.c ****                     if (CYRET_SUCCESS == app0Status)
 985:Generated_Source\PSoC5/BL.c ****                     {
 986:Generated_Source\PSoC5/BL.c ****                         /* Cases # 7 */
 987:Generated_Source\PSoC5/BL.c ****                         BL_activeApp = BL_MD_BTLDB_ACTIVE_0;
 988:Generated_Source\PSoC5/BL.c ****                         validApp = CYRET_SUCCESS;
 989:Generated_Source\PSoC5/BL.c ****                     }
 990:Generated_Source\PSoC5/BL.c ****                     #endif /*(((1u == BL_AUTO_SWITCHING_AVAIL) && \
 991:Generated_Source\PSoC5/BL.c ****                                (CYDEV_PROJ_TYPE == CYDEV_PROJ_TYPE_MULTIAPPBOOTLOADER)) \
 992:Generated_Source\PSoC5/BL.c ****                             || (CYDEV_PROJ_TYPE == CYDEV_PROJ_TYPE_LAUNCHER))*/
 993:Generated_Source\PSoC5/BL.c ****                 }
 994:Generated_Source\PSoC5/BL.c ****             }
 995:Generated_Source\PSoC5/BL.c ****         }
 996:Generated_Source\PSoC5/BL.c ****         
 997:Generated_Source\PSoC5/BL.c ****         #if (CYDEV_PROJ_TYPE == CYDEV_PROJ_TYPE_LAUNCHER) 
 998:Generated_Source\PSoC5/BL.c ****             /*None of applications is active*/
 999:Generated_Source\PSoC5/BL.c ****             if (BL_MD_BTLDB_ACTIVE_NONE ==BL_activeApp)
1000:Generated_Source\PSoC5/BL.c ****             {
1001:Generated_Source\PSoC5/BL.c ****                 /*case#5, case#6: pass control to Bootloadable app#1*/
1002:Generated_Source\PSoC5/BL.c ****                 if(CYRET_SUCCESS == app0Status)
1003:Generated_Source\PSoC5/BL.c ****                 {
1004:Generated_Source\PSoC5/BL.c ****                     BL_activeApp = BL_MD_BTLDB_ACTIVE_0;
1005:Generated_Source\PSoC5/BL.c ****                     validApp = CYRET_SUCCESS;
1006:Generated_Source\PSoC5/BL.c ****                 }
1007:Generated_Source\PSoC5/BL.c ****                 /*case#2: pass control to Bootloadable app#2*/
1008:Generated_Source\PSoC5/BL.c ****                 else if (CYRET_SUCCESS == app1Status)
1009:Generated_Source\PSoC5/BL.c ****                 {
ARM GAS  C:\Users\wormley\AppData\Local\Temp\ccWx7Wvt.s 			page 21


1010:Generated_Source\PSoC5/BL.c ****                     BL_activeApp = BL_MD_BTLDB_ACTIVE_1;
1011:Generated_Source\PSoC5/BL.c ****                     validApp = CYRET_SUCCESS;
1012:Generated_Source\PSoC5/BL.c ****                 }
1013:Generated_Source\PSoC5/BL.c ****                 else
1014:Generated_Source\PSoC5/BL.c ****                 {
1015:Generated_Source\PSoC5/BL.c ****                     /* case#1, case#3, case#9, case#11: very bad situation, no valid application */
1016:Generated_Source\PSoC5/BL.c ****                     /* Do nothing, stay in Bootloader/Launcher */
1017:Generated_Source\PSoC5/BL.c ****                 }
1018:Generated_Source\PSoC5/BL.c ****             }
1019:Generated_Source\PSoC5/BL.c **** 
1020:Generated_Source\PSoC5/BL.c **** 
1021:Generated_Source\PSoC5/BL.c ****              /*********************************************************************************
1022:Generated_Source\PSoC5/BL.c ****             * The next logic is an invalidation of the non-active application in the metadata
1023:Generated_Source\PSoC5/BL.c ****             * section, because there could be a situation due to some error, when both  
1024:Generated_Source\PSoC5/BL.c ****             * applications are set active (cases #12,15,16). Only one application can be active.
1025:Generated_Source\PSoC5/BL.c ****             * This logic also stores the active application number in the metadata section.        
1026:Generated_Source\PSoC5/BL.c ****             *********************************************************************************/
1027:Generated_Source\PSoC5/BL.c ****             if (CYRET_SUCCESS == validApp)
1028:Generated_Source\PSoC5/BL.c ****             {
1029:Generated_Source\PSoC5/BL.c ****                 BL_SetActiveAppInMetadata(BL_activeApp);      
1030:Generated_Source\PSoC5/BL.c ****             }
1031:Generated_Source\PSoC5/BL.c ****         #endif /* CYDEV_PROJ_TYPE == CYDEV_PROJ_TYPE_LAUNCHER */
1032:Generated_Source\PSoC5/BL.c ****     #else /*SINGLE_APP BOOTLOADER*/
1033:Generated_Source\PSoC5/BL.c ****         if (CYRET_SUCCESS == BL_ValidateBootloadable(BL_MD_BTLDB_ACTIVE_0))
1034:Generated_Source\PSoC5/BL.c ****         {
1035:Generated_Source\PSoC5/BL.c ****             validApp = CYRET_SUCCESS;
1036:Generated_Source\PSoC5/BL.c ****         }
1037:Generated_Source\PSoC5/BL.c ****     #endif  /* (0u != BL_DUAL_APP_BOOTLOADER) */
1038:Generated_Source\PSoC5/BL.c **** 
1039:Generated_Source\PSoC5/BL.c ****     
1040:Generated_Source\PSoC5/BL.c ****     /***********************************************************************
1041:Generated_Source\PSoC5/BL.c ****     * Bootloader Application Validation
1042:Generated_Source\PSoC5/BL.c ****     *
1043:Generated_Source\PSoC5/BL.c ****     * Halt the device if:
1044:Generated_Source\PSoC5/BL.c ****     *  - A calculated checksum does not match the one stored in the metadata
1045:Generated_Source\PSoC5/BL.c ****     *     section.
1046:Generated_Source\PSoC5/BL.c ****     *  - There is an invalid pointer to the place where the Bootloader
1047:Generated_Source\PSoC5/BL.c ****     *    application ends.
1048:Generated_Source\PSoC5/BL.c ****     *  - The flash subsystem was not initialized correctly.
1049:Generated_Source\PSoC5/BL.c ****     ***********************************************************************/
1050:Generated_Source\PSoC5/BL.c ****     #if(0u != BL_BOOTLOADER_APP_VALIDATION)
1051:Generated_Source\PSoC5/BL.c **** 
1052:Generated_Source\PSoC5/BL.c ****         /* Calculate Bootloader application checksum */
1053:Generated_Source\PSoC5/BL.c ****         calcedChecksum = BL_Calc8BitSum(CY_FLASH_BASE,
1054:Generated_Source\PSoC5/BL.c ****                 BL_MD_BTLDR_ADDR_PTR,
1055:Generated_Source\PSoC5/BL.c ****                 *BL_SizeBytesAccess - BL_MD_BTLDR_ADDR_PTR);
1056:Generated_Source\PSoC5/BL.c **** 
1057:Generated_Source\PSoC5/BL.c ****         /* We included checksum, so remove it */
1058:Generated_Source\PSoC5/BL.c ****         calcedChecksum -= *BL_ChecksumAccess;
1059:Generated_Source\PSoC5/BL.c ****         calcedChecksum = ( uint8 )1u + ( uint8 )(~calcedChecksum);
1060:Generated_Source\PSoC5/BL.c **** 
1061:Generated_Source\PSoC5/BL.c ****         /* Checksum and pointer to Bootloader verification */
1062:Generated_Source\PSoC5/BL.c ****         if((calcedChecksum != *BL_ChecksumAccess) ||
1063:Generated_Source\PSoC5/BL.c ****            (0u == *BL_SizeBytesAccess))
1064:Generated_Source\PSoC5/BL.c ****         {
1065:Generated_Source\PSoC5/BL.c ****             /***********************************************************************
1066:Generated_Source\PSoC5/BL.c ****             * If the Bootloader/Launcher application calculated checksum does not match
ARM GAS  C:\Users\wormley\AppData\Local\Temp\ccWx7Wvt.s 			page 22


1067:Generated_Source\PSoC5/BL.c ****             * the checksum stored in special BL_Checksum constant 
1068:Generated_Source\PSoC5/BL.c ****             * (accessed through BL_ChecksumAccess) constant or its size 
1069:Generated_Source\PSoC5/BL.c ****             * stored in BL_SizeBytes constant (accessed through
1070:Generated_Source\PSoC5/BL.c ****             * BL_SizeBytesAccess) then CPU is halted, all software 
1071:Generated_Source\PSoC5/BL.c ****             * processing stops. 
1072:Generated_Source\PSoC5/BL.c ****             ***********************************************************************/
1073:Generated_Source\PSoC5/BL.c ****             CyHalt(0x00u);
1074:Generated_Source\PSoC5/BL.c ****         }
1075:Generated_Source\PSoC5/BL.c **** 
1076:Generated_Source\PSoC5/BL.c ****     #endif /* 0u != BL_BOOTLOADER_APP_VALIDATION */
1077:Generated_Source\PSoC5/BL.c **** #endif /* CYDEV_PROJ_TYPE != CYDEV_PROJ_TYPE_LOADABLEANDBOOTLOADER*/ 
1078:Generated_Source\PSoC5/BL.c **** 
1079:Generated_Source\PSoC5/BL.c **** #if (CYDEV_PROJ_TYPE != CYDEV_PROJ_TYPE_LAUNCHER)    
1080:Generated_Source\PSoC5/BL.c ****     /***********************************************************************
1081:Generated_Source\PSoC5/BL.c ****     * If the active Bootloadable application is invalid or scheduled - do the following:
1082:Generated_Source\PSoC5/BL.c ****     *  - schedule the Bootloader application to be run after a software reset;
1083:Generated_Source\PSoC5/BL.c ****     *  - go to the communication subroutine. The HostLink() will wait for
1084:Generated_Source\PSoC5/BL.c ****     *    commands forever.
1085:Generated_Source\PSoC5/BL.c ****     ***********************************************************************/
1086:Generated_Source\PSoC5/BL.c ****     if ((BL_GET_RUN_TYPE == BL_SCHEDULE_BTLDR) 
1087:Generated_Source\PSoC5/BL.c **** #if (CYDEV_PROJ_TYPE != CYDEV_PROJ_TYPE_LOADABLEANDBOOTLOADER)        
1088:Generated_Source\PSoC5/BL.c ****         || (CYRET_SUCCESS != validApp)
1089:Generated_Source\PSoC5/BL.c **** #endif        
1090:Generated_Source\PSoC5/BL.c ****         )
1091:Generated_Source\PSoC5/BL.c ****     {
1092:Generated_Source\PSoC5/BL.c ****         BL_SET_RUN_TYPE(BL_SCHEDULE_BTLDR_INIT_STATE);
1093:Generated_Source\PSoC5/BL.c **** 
1094:Generated_Source\PSoC5/BL.c ****         BL_HostLink(BL_WAIT_FOR_COMMAND_FOREVER);
1095:Generated_Source\PSoC5/BL.c ****     }
1096:Generated_Source\PSoC5/BL.c **** 
1097:Generated_Source\PSoC5/BL.c ****     /* Go to communication subroutine. Will wait for commands for specified time */
1098:Generated_Source\PSoC5/BL.c ****     #if(0u != BL_WAIT_FOR_COMMAND)
1099:Generated_Source\PSoC5/BL.c **** 
1100:Generated_Source\PSoC5/BL.c ****         /* Timeout is in 100s of milliseconds */
1101:Generated_Source\PSoC5/BL.c ****         BL_HostLink(BL_WAIT_FOR_COMMAND_TIME);
1102:Generated_Source\PSoC5/BL.c **** 
1103:Generated_Source\PSoC5/BL.c ****     #endif  /* (0u != BL_WAIT_FOR_COMMAND) */
1104:Generated_Source\PSoC5/BL.c **** #else /* Launcher */
1105:Generated_Source\PSoC5/BL.c ****     /* If none Bootloadable application is valid */
1106:Generated_Source\PSoC5/BL.c ****     if (CYRET_SUCCESS != validApp)
1107:Generated_Source\PSoC5/BL.c ****     {   
1108:Generated_Source\PSoC5/BL.c ****         CyHalt(0x00u);
1109:Generated_Source\PSoC5/BL.c ****     }         
1110:Generated_Source\PSoC5/BL.c **** #endif /*CYDEV_PROJ_TYPE != CYDEV_PROJ_TYPE_LAUNCHER*/    
1111:Generated_Source\PSoC5/BL.c **** 
1112:Generated_Source\PSoC5/BL.c **** #if (CYDEV_PROJ_TYPE != CYDEV_PROJ_TYPE_LOADABLEANDBOOTLOADER)             
1113:Generated_Source\PSoC5/BL.c ****     /* Schedule Bootloadable application and perform software reset */
1114:Generated_Source\PSoC5/BL.c ****     BL_LaunchApplication();
1115:Generated_Source\PSoC5/BL.c **** #endif /*(CYDEV_PROJ_TYPE != CYDEV_PROJ_TYPE_LOADABLEANDBOOTLOADER)*/    
1116:Generated_Source\PSoC5/BL.c **** }
1117:Generated_Source\PSoC5/BL.c **** 
1118:Generated_Source\PSoC5/BL.c **** #if (CYDEV_PROJ_TYPE != CYDEV_PROJ_TYPE_LOADABLEANDBOOTLOADER)
1119:Generated_Source\PSoC5/BL.c **** /*******************************************************************************
1120:Generated_Source\PSoC5/BL.c **** * Function Name: BL_LaunchApplication
1121:Generated_Source\PSoC5/BL.c **** ****************************************************************************//**
1122:Generated_Source\PSoC5/BL.c **** * \internal
1123:Generated_Source\PSoC5/BL.c **** *
ARM GAS  C:\Users\wormley\AppData\Local\Temp\ccWx7Wvt.s 			page 23


1124:Generated_Source\PSoC5/BL.c **** * \brief
1125:Generated_Source\PSoC5/BL.c **** *  Schedules the Bootloadable application and resets the device.
1126:Generated_Source\PSoC5/BL.c **** *
1127:Generated_Source\PSoC5/BL.c **** * \return
1128:Generated_Source\PSoC5/BL.c **** *  This method will never return.
1129:Generated_Source\PSoC5/BL.c **** *
1130:Generated_Source\PSoC5/BL.c **** * \endinternal
1131:Generated_Source\PSoC5/BL.c **** *******************************************************************************/
1132:Generated_Source\PSoC5/BL.c **** static void BL_LaunchApplication(void) CYSMALL \
1133:Generated_Source\PSoC5/BL.c ****                     
1134:Generated_Source\PSoC5/BL.c **** {
1135:Generated_Source\PSoC5/BL.c ****     /* Schedule Bootloadable to start after a reset */
1136:Generated_Source\PSoC5/BL.c ****     BL_SET_RUN_TYPE(BL_SCHEDULE_BTLDB);
1137:Generated_Source\PSoC5/BL.c **** 
1138:Generated_Source\PSoC5/BL.c ****     CySoftwareReset();
1139:Generated_Source\PSoC5/BL.c **** }
1140:Generated_Source\PSoC5/BL.c **** #endif /*(CYDEV_PROJ_TYPE != CYDEV_PROJ_TYPE_LOADABLEANDBOOTLOADER)*/
1141:Generated_Source\PSoC5/BL.c **** 
1142:Generated_Source\PSoC5/BL.c **** /*******************************************************************************
1143:Generated_Source\PSoC5/BL.c **** * Function Name: BL_Exit
1144:Generated_Source\PSoC5/BL.c **** ****************************************************************************//**
1145:Generated_Source\PSoC5/BL.c **** *
1146:Generated_Source\PSoC5/BL.c **** *\brief
1147:Generated_Source\PSoC5/BL.c **** *  Schedules the specified application and performs a software reset to launch
1148:Generated_Source\PSoC5/BL.c **** *  a specified application.
1149:Generated_Source\PSoC5/BL.c **** *
1150:Generated_Source\PSoC5/BL.c **** *  If the specified application is not valid, the Bootloader (the result of the
1151:Generated_Source\PSoC5/BL.c **** *  ValidateBootloadable() function execution returns other than CYRET_SUCCESS,
1152:Generated_Source\PSoC5/BL.c **** *  the Bootloader application is launched.
1153:Generated_Source\PSoC5/BL.c **** *
1154:Generated_Source\PSoC5/BL.c **** * \param appId 
1155:Generated_Source\PSoC5/BL.c **** *   The application to be started:
1156:Generated_Source\PSoC5/BL.c **** *   - BL_EXIT_TO_BTLDR - The Bootloader application will be started on
1157:Generated_Source\PSoC5/BL.c **** *                                     a software reset.
1158:Generated_Source\PSoC5/BL.c **** *   - BL_EXIT_TO_BTLDB;
1159:Generated_Source\PSoC5/BL.c **** *   - BL_EXIT_TO_BTLDB_1 - Bootloadable application # 1 will be
1160:Generated_Source\PSoC5/BL.c **** *                                     started on a software reset.
1161:Generated_Source\PSoC5/BL.c **** *   - BL_EXIT_TO_BTLDB_2 - Bootloadable application # 2 will be
1162:Generated_Source\PSoC5/BL.c **** *                                     started on a software reset. Available only
1163:Generated_Source\PSoC5/BL.c **** *                                     if the "Dual-application" option is enabled in
1164:Generated_Source\PSoC5/BL.c **** *                                     the component customizer.
1165:Generated_Source\PSoC5/BL.c **** * \return
1166:Generated_Source\PSoC5/BL.c **** *  This function never returns.
1167:Generated_Source\PSoC5/BL.c **** *
1168:Generated_Source\PSoC5/BL.c **** *******************************************************************************/
1169:Generated_Source\PSoC5/BL.c **** void BL_Exit(uint8 appId) CYSMALL 
1170:Generated_Source\PSoC5/BL.c **** {
1171:Generated_Source\PSoC5/BL.c ****     if(BL_EXIT_TO_BTLDR == appId)
1172:Generated_Source\PSoC5/BL.c ****     {
1173:Generated_Source\PSoC5/BL.c ****         BL_SET_RUN_TYPE(BL_SCHEDULE_BTLDR_INIT_STATE);
1174:Generated_Source\PSoC5/BL.c ****     }
1175:Generated_Source\PSoC5/BL.c ****     else
1176:Generated_Source\PSoC5/BL.c ****     {
1177:Generated_Source\PSoC5/BL.c ****         if(CYRET_SUCCESS == BL_ValidateBootloadable(appId))
1178:Generated_Source\PSoC5/BL.c ****         {
1179:Generated_Source\PSoC5/BL.c ****             /* Set active application in metadata */
1180:Generated_Source\PSoC5/BL.c ****             uint8 CYDATA idx;
ARM GAS  C:\Users\wormley\AppData\Local\Temp\ccWx7Wvt.s 			page 24


1181:Generated_Source\PSoC5/BL.c ****             for(idx = 0u; idx < BL_MAX_NUM_OF_BTLDB; idx++)
1182:Generated_Source\PSoC5/BL.c ****             {
1183:Generated_Source\PSoC5/BL.c ****                 BL_SetFlashByte((uint32) BL_MD_BTLDB_ACTIVE_OFFSET(idx),
1184:Generated_Source\PSoC5/BL.c ****                                               (uint8 )(idx == appId));
1185:Generated_Source\PSoC5/BL.c ****             }
1186:Generated_Source\PSoC5/BL.c **** 
1187:Generated_Source\PSoC5/BL.c ****         #if((0u != BL_DUAL_APP_BOOTLOADER) || \
1188:Generated_Source\PSoC5/BL.c ****             (CYDEV_PROJ_TYPE == CYDEV_PROJ_TYPE_LOADABLEANDBOOTLOADER))
1189:Generated_Source\PSoC5/BL.c ****             BL_activeApp = appId;
1190:Generated_Source\PSoC5/BL.c ****         #endif /* (0u != BL_DUAL_APP_BOOTLOADER) || 
1191:Generated_Source\PSoC5/BL.c ****                   (CYDEV_PROJ_TYPE == CYDEV_PROJ_TYPE_LOADABLEANDBOOTLOADER))*/
1192:Generated_Source\PSoC5/BL.c **** 
1193:Generated_Source\PSoC5/BL.c ****             BL_SET_RUN_TYPE(BL_SCHEDULE_BTLDB);
1194:Generated_Source\PSoC5/BL.c ****         }
1195:Generated_Source\PSoC5/BL.c ****         else
1196:Generated_Source\PSoC5/BL.c ****         {
1197:Generated_Source\PSoC5/BL.c ****             BL_SET_RUN_TYPE(BL_SCHEDULE_BTLDR_INIT_STATE);
1198:Generated_Source\PSoC5/BL.c ****         }
1199:Generated_Source\PSoC5/BL.c ****     }
1200:Generated_Source\PSoC5/BL.c **** 
1201:Generated_Source\PSoC5/BL.c ****     CySoftwareReset();
1202:Generated_Source\PSoC5/BL.c **** }
1203:Generated_Source\PSoC5/BL.c **** 
1204:Generated_Source\PSoC5/BL.c **** #if (CYDEV_PROJ_TYPE != CYDEV_PROJ_TYPE_LOADABLEANDBOOTLOADER)
1205:Generated_Source\PSoC5/BL.c **** /*******************************************************************************
1206:Generated_Source\PSoC5/BL.c **** * Function Name: CyBtldr_CheckLaunch
1207:Generated_Source\PSoC5/BL.c **** ****************************************************************************//**
1208:Generated_Source\PSoC5/BL.c **** * \internal
1209:Generated_Source\PSoC5/BL.c **** *
1210:Generated_Source\PSoC5/BL.c **** * \brief
1211:Generated_Source\PSoC5/BL.c **** *  This routine checks if the Bootloader or Bootloadable application has to
1212:Generated_Source\PSoC5/BL.c **** *  be run.  If the application has to be run, it will start executing.
1213:Generated_Source\PSoC5/BL.c **** *  If the Bootloader has to be run, it will return, so the Bootloader can
1214:Generated_Source\PSoC5/BL.c **** *  continue starting up.
1215:Generated_Source\PSoC5/BL.c **** *
1216:Generated_Source\PSoC5/BL.c **** * \return
1217:Generated_Source\PSoC5/BL.c **** *  It will not return if it determines that the Bootloadable application should
1218:Generated_Source\PSoC5/BL.c **** *  be run.
1219:Generated_Source\PSoC5/BL.c **** *
1220:Generated_Source\PSoC5/BL.c **** * \endinternal
1221:Generated_Source\PSoC5/BL.c **** *******************************************************************************/
1222:Generated_Source\PSoC5/BL.c **** void CyBtldr_CheckLaunch(void) CYSMALL 
1223:Generated_Source\PSoC5/BL.c **** {
1224:Generated_Source\PSoC5/BL.c **** 
1225:Generated_Source\PSoC5/BL.c **** #if(CY_PSOC4)
1226:Generated_Source\PSoC5/BL.c **** 
1227:Generated_Source\PSoC5/BL.c ****     /*******************************************************************************
1228:Generated_Source\PSoC5/BL.c ****     * Set cyBtldrRunType to zero in the case of a non-software reset. This means
1229:Generated_Source\PSoC5/BL.c ****     * that the Bootloader application is scheduled - the initial clean state. The
1230:Generated_Source\PSoC5/BL.c ****     * value of cyBtldrRunType is valid only in the case of a software reset.
1231:Generated_Source\PSoC5/BL.c ****     *******************************************************************************/
1232:Generated_Source\PSoC5/BL.c ****     if (0u == (BL_RES_CAUSE_REG & BL_RES_CAUSE_RESET_SOFT))
1233:Generated_Source\PSoC5/BL.c ****     {
1234:Generated_Source\PSoC5/BL.c ****         cyBtldrRunType = BL_SCHEDULE_BTLDR_INIT_STATE;
1235:Generated_Source\PSoC5/BL.c ****     }
1236:Generated_Source\PSoC5/BL.c **** 
1237:Generated_Source\PSoC5/BL.c **** #endif /* (CY_PSOC4) */
ARM GAS  C:\Users\wormley\AppData\Local\Temp\ccWx7Wvt.s 			page 25


1238:Generated_Source\PSoC5/BL.c **** 
1239:Generated_Source\PSoC5/BL.c **** 
1240:Generated_Source\PSoC5/BL.c ****     if (BL_GET_RUN_TYPE == BL_SCHEDULE_BTLDB)
1241:Generated_Source\PSoC5/BL.c ****     {
1242:Generated_Source\PSoC5/BL.c **** 
1243:Generated_Source\PSoC5/BL.c **** 
1244:Generated_Source\PSoC5/BL.c ****     #if (CYDEV_PROJ_TYPE != CYDEV_PROJ_TYPE_LAUNCHER)
1245:Generated_Source\PSoC5/BL.c ****         /******************************************************************************* 
1246:Generated_Source\PSoC5/BL.c ****         * Classic Single-app or Dual-app Bootloader use cases.
1247:Generated_Source\PSoC5/BL.c ****         * The active application number is taken from BL_activeApp not
1248:Generated_Source\PSoC5/BL.c ****         * to break backward compatibility.
1249:Generated_Source\PSoC5/BL.c ****         *******************************************************************************/
1250:Generated_Source\PSoC5/BL.c ****         uint8 activeApp = BL_activeApp;
1251:Generated_Source\PSoC5/BL.c ****         
1252:Generated_Source\PSoC5/BL.c ****         
1253:Generated_Source\PSoC5/BL.c ****         /******************************************************************************* 
1254:Generated_Source\PSoC5/BL.c ****         * Classic Dual-app Bootloader with 2 Combination projects use case.
1255:Generated_Source\PSoC5/BL.c ****         * In this use case Classic Dual-app Bootloader is not the only one, who switches
1256:Generated_Source\PSoC5/BL.c ****         * between applications. So if there is no valid value for BL_activeApp,
1257:Generated_Source\PSoC5/BL.c ****         * then we should additionally check the metadata if one of the Combination application
1258:Generated_Source\PSoC5/BL.c ****         * has set a value there.
1259:Generated_Source\PSoC5/BL.c ****         *******************************************************************************/ 
1260:Generated_Source\PSoC5/BL.c ****         #if (CYDEV_PROJ_TYPE == CYDEV_PROJ_TYPE_MULTIAPPBOOTLOADER)
1261:Generated_Source\PSoC5/BL.c ****         if (activeApp >= BL_MD_BTLDB_ACTIVE_NONE) 
1262:Generated_Source\PSoC5/BL.c ****         {
1263:Generated_Source\PSoC5/BL.c ****             activeApp = BL_GetActiveAppFromMetadata();
1264:Generated_Source\PSoC5/BL.c ****         }
1265:Generated_Source\PSoC5/BL.c ****         #endif /*(CYDEV_PROJ_TYPE == CYDEV_PROJ_TYPE_MULTIAPPBOOTLOADER)*/ 
1266:Generated_Source\PSoC5/BL.c ****     #else 
1267:Generated_Source\PSoC5/BL.c ****         /* Launcher use case.  The active application number is taken from metadata. */
1268:Generated_Source\PSoC5/BL.c ****         uint8 activeApp = BL_GetActiveAppFromMetadata(); 
1269:Generated_Source\PSoC5/BL.c ****     #endif /* (CYDEV_PROJ_TYPE != CYDEV_PROJ_TYPE_LAUNCHER) */
1270:Generated_Source\PSoC5/BL.c ****         
1271:Generated_Source\PSoC5/BL.c ****         BL_SET_RUN_TYPE(BL_SCHEDULE_BTLDR_INIT_STATE);
1272:Generated_Source\PSoC5/BL.c **** 
1273:Generated_Source\PSoC5/BL.c ****         /*******************************************************************************
1274:Generated_Source\PSoC5/BL.c ****         * Indicates that we have told ourselves to jump to the application because we have
1275:Generated_Source\PSoC5/BL.c ****         * already told ourselves to jump, we do not do any expensive verification of the
1276:Generated_Source\PSoC5/BL.c ****         * application. We just check to make sure that the value at CY_APP_ADDR_ADDRESS
1277:Generated_Source\PSoC5/BL.c ****         * is something other than 0 and active application is valid.
1278:Generated_Source\PSoC5/BL.c ****         *******************************************************************************/
1279:Generated_Source\PSoC5/BL.c ****         if ((0u != BL_GetMetadata(BL_GET_BTLDB_ADDR, activeApp)) 
1280:Generated_Source\PSoC5/BL.c ****     #if (CYDEV_PROJ_TYPE != CYDEV_PROJ_TYPE_BOOTLOADER)
1281:Generated_Source\PSoC5/BL.c ****             && (activeApp < BL_MD_BTLDB_ACTIVE_NONE)
1282:Generated_Source\PSoC5/BL.c ****     #endif /* (CYDEV_PROJ_TYPE != CYDEV_PROJ_TYPE_BOOTLOADER) */        
1283:Generated_Source\PSoC5/BL.c ****             )
1284:Generated_Source\PSoC5/BL.c ****         {
1285:Generated_Source\PSoC5/BL.c ****             /* Never returns from this method */
1286:Generated_Source\PSoC5/BL.c ****             BL_LaunchBootloadable(BL_GetMetadata(BL_GET_BTLDB_ADDR,
1287:Generated_Source\PSoC5/BL.c ****                                                                              activeApp));
1288:Generated_Source\PSoC5/BL.c ****         }
1289:Generated_Source\PSoC5/BL.c ****     }
1290:Generated_Source\PSoC5/BL.c **** }
1291:Generated_Source\PSoC5/BL.c **** 
1292:Generated_Source\PSoC5/BL.c **** 
1293:Generated_Source\PSoC5/BL.c **** /* Moves argument appAddr (RO) into PC, moving execution to appAddr */
1294:Generated_Source\PSoC5/BL.c **** #if defined (__ARMCC_VERSION)
ARM GAS  C:\Users\wormley\AppData\Local\Temp\ccWx7Wvt.s 			page 26


1295:Generated_Source\PSoC5/BL.c **** 
1296:Generated_Source\PSoC5/BL.c ****     __asm static void BL_LaunchBootloadable(uint32 appAddr)
1297:Generated_Source\PSoC5/BL.c ****     {
1298:Generated_Source\PSoC5/BL.c ****         BX  R0
1299:Generated_Source\PSoC5/BL.c ****         ALIGN
1300:Generated_Source\PSoC5/BL.c ****     }
1301:Generated_Source\PSoC5/BL.c **** 
1302:Generated_Source\PSoC5/BL.c **** #elif defined(__GNUC__)
1303:Generated_Source\PSoC5/BL.c **** 
1304:Generated_Source\PSoC5/BL.c ****     __attribute__((noinline)) /* Workaround for GCC toolchain bug with inlining */
1305:Generated_Source\PSoC5/BL.c ****     __attribute__((naked))
1306:Generated_Source\PSoC5/BL.c ****     static void BL_LaunchBootloadable(uint32 appAddr)
1307:Generated_Source\PSoC5/BL.c ****     {
 128              		.loc 1 1307 0
 129              		.cfi_startproc
 130              		@ Naked Function: prologue and epilogue provided by programmer.
 131              		@ args = 0, pretend = 0, frame = 0
 132              		@ frame_needed = 0, uses_anonymous_args = 0
 133              	.LVL15:
1308:Generated_Source\PSoC5/BL.c ****         __asm volatile("    BX  R0\n");
 134              		.loc 1 1308 0
 135              		.syntax unified
 136              	@ 1308 "Generated_Source\PSoC5\BL.c" 1
 137 0000 0047     		    BX  R0
 138              	
 139              	@ 0 "" 2
1309:Generated_Source\PSoC5/BL.c ****     }
 140              		.loc 1 1309 0
 141              		.thumb
 142              		.syntax unified
 143              		.cfi_endproc
 144              	.LFE71:
 145              		.size	BL_LaunchBootloadable, .-BL_LaunchBootloadable
 146              		.section	.text.BL_LaunchApplication,"ax",%progbits
 147              		.align	2
 148              		.thumb
 149              		.thumb_func
 150              		.type	BL_LaunchApplication, %function
 151              	BL_LaunchApplication:
 152              	.LFB68:
1134:Generated_Source\PSoC5/BL.c ****     /* Schedule Bootloadable to start after a reset */
 153              		.loc 1 1134 0
 154              		.cfi_startproc
 155              		@ args = 0, pretend = 0, frame = 0
 156              		@ frame_needed = 0, uses_anonymous_args = 0
 157 0000 08B5     		push	{r3, lr}
 158              		.cfi_def_cfa_offset 8
 159              		.cfi_offset 3, -8
 160              		.cfi_offset 14, -4
1136:Generated_Source\PSoC5/BL.c **** 
 161              		.loc 1 1136 0
 162 0002 8022     		movs	r2, #128
 163 0004 024B     		ldr	r3, .L13
 164 0006 1A70     		strb	r2, [r3]
1138:Generated_Source\PSoC5/BL.c **** }
 165              		.loc 1 1138 0
 166 0008 FFF7FEFF 		bl	CySoftwareReset
ARM GAS  C:\Users\wormley\AppData\Local\Temp\ccWx7Wvt.s 			page 27


 167              	.LVL16:
 168 000c 08BD     		pop	{r3, pc}
 169              	.L14:
 170 000e 00BF     		.align	2
 171              	.L13:
 172 0010 FA460040 		.word	1073759994
 173              		.cfi_endproc
 174              	.LFE68:
 175              		.size	BL_LaunchApplication, .-BL_LaunchApplication
 176              		.section	.text.BL_WritePacket,"ax",%progbits
 177              		.align	2
 178              		.thumb
 179              		.thumb_func
 180              		.type	BL_WritePacket, %function
 181              	BL_WritePacket:
 182              	.LFB74:
1310:Generated_Source\PSoC5/BL.c **** 
1311:Generated_Source\PSoC5/BL.c **** #elif defined (__ICCARM__)
1312:Generated_Source\PSoC5/BL.c **** 
1313:Generated_Source\PSoC5/BL.c ****     static void BL_LaunchBootloadable(uint32 appAddr)
1314:Generated_Source\PSoC5/BL.c ****     {
1315:Generated_Source\PSoC5/BL.c ****         __asm volatile("    BX  R0\n");
1316:Generated_Source\PSoC5/BL.c ****     }
1317:Generated_Source\PSoC5/BL.c **** 
1318:Generated_Source\PSoC5/BL.c **** #endif  /* (__ARMCC_VERSION) */
1319:Generated_Source\PSoC5/BL.c **** #endif /* (CYDEV_PROJ_TYPE != CYDEV_PROJ_TYPE_LOADABLEANDBOOTLOADER)*/
1320:Generated_Source\PSoC5/BL.c **** 
1321:Generated_Source\PSoC5/BL.c **** /*******************************************************************************
1322:Generated_Source\PSoC5/BL.c **** * Function Name: BL_ValidateBootloadable
1323:Generated_Source\PSoC5/BL.c **** ****************************************************************************//**
1324:Generated_Source\PSoC5/BL.c **** * \brief
1325:Generated_Source\PSoC5/BL.c **** *  Performs the Bootloadable application validation by calculating the
1326:Generated_Source\PSoC5/BL.c **** *  application image checksum and comparing it with the checksum value stored
1327:Generated_Source\PSoC5/BL.c **** *  in the Bootloadable Application Checksum field of the metadata section.
1328:Generated_Source\PSoC5/BL.c **** *
1329:Generated_Source\PSoC5/BL.c **** *  If the "Fast bootloadable application validation" option is enabled in the
1330:Generated_Source\PSoC5/BL.c **** *  component customizer and Bootloadable application successfully passes
1331:Generated_Source\PSoC5/BL.c **** *  validation, the Bootloadable Application Verification Status field of the
1332:Generated_Source\PSoC5/BL.c **** *  metadata section is updated. Refer to the "Metadata Layout" section for the
1333:Generated_Source\PSoC5/BL.c **** *  details.
1334:Generated_Source\PSoC5/BL.c **** *
1335:Generated_Source\PSoC5/BL.c **** *  If the "Fast bootloadable application validation" option is enabled and
1336:Generated_Source\PSoC5/BL.c **** *  the Bootloadable Application Verification Status field of the metadata section
1337:Generated_Source\PSoC5/BL.c **** *  claims that the Bootloadable application is valid, the function returns
1338:Generated_Source\PSoC5/BL.c **** *  CYRET_SUCCESS without further checksum calculation.
1339:Generated_Source\PSoC5/BL.c **** *
1340:Generated_Source\PSoC5/BL.c **** *  \param appId
1341:Generated_Source\PSoC5/BL.c **** *  The number of the Bootloadable application should be 0 for the normal
1342:Generated_Source\PSoC5/BL.c **** *  bootloader and 0 or 1 for the dual-application bootloader.
1343:Generated_Source\PSoC5/BL.c **** *
1344:Generated_Source\PSoC5/BL.c **** * \return
1345:Generated_Source\PSoC5/BL.c **** *  CYRET_SUCCESS - If the specified the Bootloadable application is valid.
1346:Generated_Source\PSoC5/BL.c **** *  CYRET_BAD_DATA is returned if the input parameter is out of the specified range
1347:Generated_Source\PSoC5/BL.c **** *      or the calculated checksum does not match the stored checksum.
1348:Generated_Source\PSoC5/BL.c **** *******************************************************************************/
1349:Generated_Source\PSoC5/BL.c **** cystatus BL_ValidateBootloadable(uint8 appId) CYSMALL \
1350:Generated_Source\PSoC5/BL.c **** 
ARM GAS  C:\Users\wormley\AppData\Local\Temp\ccWx7Wvt.s 			page 28


1351:Generated_Source\PSoC5/BL.c ****     {
1352:Generated_Source\PSoC5/BL.c ****         uint32 CYDATA idx;
1353:Generated_Source\PSoC5/BL.c **** 
1354:Generated_Source\PSoC5/BL.c ****         uint32 CYDATA end   = BL_FIRST_APP_BYTE(appId) +
1355:Generated_Source\PSoC5/BL.c ****                               BL_GetMetadata(BL_GET_BTLDB_LENGTH, appId);
1356:Generated_Source\PSoC5/BL.c **** 
1357:Generated_Source\PSoC5/BL.c ****         CYBIT  valid = 0u; /* Assume bad flash image */
1358:Generated_Source\PSoC5/BL.c ****         uint8  CYDATA calcedChecksum = 0u;
1359:Generated_Source\PSoC5/BL.c **** 
1360:Generated_Source\PSoC5/BL.c **** 
1361:Generated_Source\PSoC5/BL.c ****         #if(0u != BL_DUAL_APP_BOOTLOADER)
1362:Generated_Source\PSoC5/BL.c **** 
1363:Generated_Source\PSoC5/BL.c ****             if(appId > 1u)
1364:Generated_Source\PSoC5/BL.c ****             {
1365:Generated_Source\PSoC5/BL.c ****                 return(CYRET_BAD_DATA);
1366:Generated_Source\PSoC5/BL.c ****             }
1367:Generated_Source\PSoC5/BL.c **** 
1368:Generated_Source\PSoC5/BL.c ****         #endif  /* (0u != BL_DUAL_APP_BOOTLOADER) */
1369:Generated_Source\PSoC5/BL.c **** 
1370:Generated_Source\PSoC5/BL.c **** 
1371:Generated_Source\PSoC5/BL.c ****         #if(0u != BL_FAST_APP_VALIDATION)
1372:Generated_Source\PSoC5/BL.c ****             if(BL_GetMetadata(BL_GET_BTLDB_STATUS, appId) ==
1373:Generated_Source\PSoC5/BL.c ****                BL_MD_BTLDB_IS_VERIFIED)
1374:Generated_Source\PSoC5/BL.c ****             {
1375:Generated_Source\PSoC5/BL.c ****                 return(CYRET_SUCCESS);
1376:Generated_Source\PSoC5/BL.c ****             }
1377:Generated_Source\PSoC5/BL.c ****         #endif  /* (0u != BL_FAST_APP_VALIDATION) */
1378:Generated_Source\PSoC5/BL.c **** 
1379:Generated_Source\PSoC5/BL.c **** 
1380:Generated_Source\PSoC5/BL.c ****         /* Calculate checksum of bootloadable image */
1381:Generated_Source\PSoC5/BL.c ****         for(idx = BL_FIRST_APP_BYTE(appId); idx < end; ++idx)
1382:Generated_Source\PSoC5/BL.c ****         {
1383:Generated_Source\PSoC5/BL.c ****             uint8 CYDATA curByte = BL_GET_CODE_BYTE(idx);
1384:Generated_Source\PSoC5/BL.c **** 
1385:Generated_Source\PSoC5/BL.c ****             if((curByte != 0u) && (curByte != 0xFFu))
1386:Generated_Source\PSoC5/BL.c ****             {
1387:Generated_Source\PSoC5/BL.c ****                 valid = 1u;
1388:Generated_Source\PSoC5/BL.c ****             }
1389:Generated_Source\PSoC5/BL.c **** 
1390:Generated_Source\PSoC5/BL.c ****             calcedChecksum += curByte;
1391:Generated_Source\PSoC5/BL.c ****         }
1392:Generated_Source\PSoC5/BL.c **** 
1393:Generated_Source\PSoC5/BL.c **** 
1394:Generated_Source\PSoC5/BL.c ****         /***************************************************************************
1395:Generated_Source\PSoC5/BL.c ****         * We do not compute a checksum over the meta data section, so no need to
1396:Generated_Source\PSoC5/BL.c ****         * subtract App Verified or App Active information here like we do when
1397:Generated_Source\PSoC5/BL.c ****         * verifying a row.
1398:Generated_Source\PSoC5/BL.c ****         ***************************************************************************/
1399:Generated_Source\PSoC5/BL.c **** 
1400:Generated_Source\PSoC5/BL.c ****         #if((!CY_PSOC4) && (CYDEV_ECC_ENABLE == 0u))
1401:Generated_Source\PSoC5/BL.c **** 
1402:Generated_Source\PSoC5/BL.c ****             /* Add ECC data to checksum */
1403:Generated_Source\PSoC5/BL.c ****             idx = ((BL_FIRST_APP_BYTE(appId)) >> 3u);
1404:Generated_Source\PSoC5/BL.c **** 
1405:Generated_Source\PSoC5/BL.c ****             /* Flash may run into meta data, so ECC does not use full row */
1406:Generated_Source\PSoC5/BL.c ****             end = (end == (CY_FLASH_SIZE - BL_MD_SIZEOF))
1407:Generated_Source\PSoC5/BL.c ****                 ? (CY_FLASH_SIZE >> 3u)
ARM GAS  C:\Users\wormley\AppData\Local\Temp\ccWx7Wvt.s 			page 29


1408:Generated_Source\PSoC5/BL.c ****                 : (end >> 3u);
1409:Generated_Source\PSoC5/BL.c **** 
1410:Generated_Source\PSoC5/BL.c ****             for (; idx < end; ++idx)
1411:Generated_Source\PSoC5/BL.c ****             {
1412:Generated_Source\PSoC5/BL.c ****                 calcedChecksum += CY_GET_XTND_REG8((volatile uint8 *)(CYDEV_ECC_BASE + idx));
1413:Generated_Source\PSoC5/BL.c ****             }
1414:Generated_Source\PSoC5/BL.c **** 
1415:Generated_Source\PSoC5/BL.c ****         #endif  /* ((!CY_PSOC4) && (CYDEV_ECC_ENABLE == 0u)) */
1416:Generated_Source\PSoC5/BL.c **** 
1417:Generated_Source\PSoC5/BL.c ****         calcedChecksum = ( uint8 )1u + ( uint8 )(~calcedChecksum);
1418:Generated_Source\PSoC5/BL.c **** 
1419:Generated_Source\PSoC5/BL.c ****         if((calcedChecksum != BL_GetMetadata(BL_GET_BTLDB_CHECKSUM, appId)) ||
1420:Generated_Source\PSoC5/BL.c ****            (0u == valid))
1421:Generated_Source\PSoC5/BL.c ****         {
1422:Generated_Source\PSoC5/BL.c ****             return(CYRET_BAD_DATA);
1423:Generated_Source\PSoC5/BL.c ****         }
1424:Generated_Source\PSoC5/BL.c **** 
1425:Generated_Source\PSoC5/BL.c **** 
1426:Generated_Source\PSoC5/BL.c ****         #if(0u != BL_FAST_APP_VALIDATION)
1427:Generated_Source\PSoC5/BL.c ****             BL_SetFlashByte((uint32) BL_MD_BTLDB_VERIFIED_OFFSET(appId),
1428:Generated_Source\PSoC5/BL.c ****                                           BL_MD_BTLDB_IS_VERIFIED);
1429:Generated_Source\PSoC5/BL.c ****         #endif  /* (0u != BL_FAST_APP_VALIDATION) */
1430:Generated_Source\PSoC5/BL.c **** 
1431:Generated_Source\PSoC5/BL.c **** 
1432:Generated_Source\PSoC5/BL.c ****         return(CYRET_SUCCESS);
1433:Generated_Source\PSoC5/BL.c **** }
1434:Generated_Source\PSoC5/BL.c **** 
1435:Generated_Source\PSoC5/BL.c **** #if (((0u != BL_DUAL_APP_BOOTLOADER) && (CYDEV_PROJ_TYPE != CYDEV_PROJ_TYPE_LAUNCHER)) \
1436:Generated_Source\PSoC5/BL.c ****                                           || (CYDEV_PROJ_TYPE == CYDEV_PROJ_TYPE_LOADABLEANDBOOTLOA
1437:Generated_Source\PSoC5/BL.c **** /*******************************************************************************
1438:Generated_Source\PSoC5/BL.c **** * Function Name: BL_CheckImage
1439:Generated_Source\PSoC5/BL.c **** ********************************************************************************
1440:Generated_Source\PSoC5/BL.c **** * \internal
1441:Generated_Source\PSoC5/BL.c **** *
1442:Generated_Source\PSoC5/BL.c **** * \brief 
1443:Generated_Source\PSoC5/BL.c **** *   This API checks if there is a permission to write to a certain image.
1444:Generated_Source\PSoC5/BL.c **** *   It is used to check the active application as well as to check the Golden image.
1445:Generated_Source\PSoC5/BL.c **** *
1446:Generated_Source\PSoC5/BL.c **** * \param 
1447:Generated_Source\PSoC5/BL.c **** *   appNumber - The application number.
1448:Generated_Source\PSoC5/BL.c **** * \param 
1449:Generated_Source\PSoC5/BL.c **** *   arrayNumber - The number of the flash page to write to.
1450:Generated_Source\PSoC5/BL.c **** * \param 
1451:Generated_Source\PSoC5/BL.c **** *   row - The row number to write to the flash.
1452:Generated_Source\PSoC5/BL.c **** * \param 
1453:Generated_Source\PSoC5/BL.c **** *   rowNumInArray - The row number inside the array.
1454:Generated_Source\PSoC5/BL.c **** *
1455:Generated_Source\PSoC5/BL.c **** * \return 
1456:Generated_Source\PSoC5/BL.c **** *   CYRET_SUCCESS - Writing to a specified image is permitted.
1457:Generated_Source\PSoC5/BL.c **** *   BL_ERR_ACTIVE - Writing to this image is NOT permitted
1458:Generated_Source\PSoC5/BL.c **** *   because the specified image is active or Golden.
1459:Generated_Source\PSoC5/BL.c **** *
1460:Generated_Source\PSoC5/BL.c **** * \endinternal
1461:Generated_Source\PSoC5/BL.c **** *******************************************************************************/
1462:Generated_Source\PSoC5/BL.c **** static uint8 BL_CheckImage(uint8 appNumber, uint8 arrayNumber, uint16 row, uint16 rowNumInArray) CY
1463:Generated_Source\PSoC5/BL.c ****                                          
1464:Generated_Source\PSoC5/BL.c **** {
ARM GAS  C:\Users\wormley\AppData\Local\Temp\ccWx7Wvt.s 			page 30


1465:Generated_Source\PSoC5/BL.c ****     uint16 CYDATA firstRow = 0xFFFFu;
1466:Generated_Source\PSoC5/BL.c ****     uint16 CYDATA lastRow = 0xFFFFu;
1467:Generated_Source\PSoC5/BL.c ****     uint8 CYDATA ackCode = CYRET_SUCCESS;
1468:Generated_Source\PSoC5/BL.c **** 
1469:Generated_Source\PSoC5/BL.c ****     if (appNumber < BL_MAX_NUM_OF_BTLDB)
1470:Generated_Source\PSoC5/BL.c ****     {    
1471:Generated_Source\PSoC5/BL.c ****         /*******************************************************************************
1472:Generated_Source\PSoC5/BL.c ****         * For the first Bootloadable application - gets the last flash row occupied by
1473:Generated_Source\PSoC5/BL.c ****         * the Bootloader application image:
1474:Generated_Source\PSoC5/BL.c ****         *  ---------------------------------------------------------------------------
1475:Generated_Source\PSoC5/BL.c ****         * | Bootloader   | Bootloadable # 1 |     | Bootloadable # 2 |     | M2 | M1 |
1476:Generated_Source\PSoC5/BL.c ****         *  ---------------------------------------------------------------------------
1477:Generated_Source\PSoC5/BL.c ****         * |<--firstRow---|>
1478:Generated_Source\PSoC5/BL.c ****         *
1479:Generated_Source\PSoC5/BL.c ****         * For the second Bootloadable application - gets the last flash row occupied by
1480:Generated_Source\PSoC5/BL.c ****         * the first Bootloadable application:
1481:Generated_Source\PSoC5/BL.c ****         *  ---------------------------------------------------------------------------
1482:Generated_Source\PSoC5/BL.c ****         * | Bootloader   | Bootloadable # 1 |     | Bootloadable # 2 |     | M2 | M1 |
1483:Generated_Source\PSoC5/BL.c ****         *  ---------------------------------------------------------------------------
1484:Generated_Source\PSoC5/BL.c ****         * |<-------------firstRow-----------------|>
1485:Generated_Source\PSoC5/BL.c ****         *
1486:Generated_Source\PSoC5/BL.c ****         * Incremented by 1 to get the first available row.
1487:Generated_Source\PSoC5/BL.c ****         *
1488:Generated_Source\PSoC5/BL.c ****         * NOTE M1 and M2 stand for metadata # 1 and metadata # 2, metadata 
1489:Generated_Source\PSoC5/BL.c ****         * sections for the 1st and 2nd Bootloadable applications.
1490:Generated_Source\PSoC5/BL.c ****         *******************************************************************************/
1491:Generated_Source\PSoC5/BL.c ****         firstRow = (uint16) 1u +
1492:Generated_Source\PSoC5/BL.c ****             (uint16) BL_GetMetadata(BL_GET_BTLDR_LAST_ROW,  appNumber);
1493:Generated_Source\PSoC5/BL.c **** 
1494:Generated_Source\PSoC5/BL.c ****     
1495:Generated_Source\PSoC5/BL.c ****     /***********************************************************************************
1496:Generated_Source\PSoC5/BL.c ****     * If this is the Upgradable Stack use case, then Stack application and User application
1497:Generated_Source\PSoC5/BL.c ****     * do not occupy the half of flash each, as the other applications do for Classic Dual-app 
1498:Generated_Source\PSoC5/BL.c ****     * and the general Launcher-Combination use cases. Another approach for calculation 
1499:Generated_Source\PSoC5/BL.c ****     * lastRow is used for the Upgradable Stack use case. See Bootloader datasheet for more 
1500:Generated_Source\PSoC5/BL.c ****     * details (use cases description).
1501:Generated_Source\PSoC5/BL.c ****     ***********************************************************************************/
1502:Generated_Source\PSoC5/BL.c **** 
1503:Generated_Source\PSoC5/BL.c ****     
1504:Generated_Source\PSoC5/BL.c ****     #if ((CYDEV_PROJ_TYPE == CYDEV_PROJ_TYPE_LOADABLEANDBOOTLOADER) && \
1505:Generated_Source\PSoC5/BL.c ****          (0u != BL_IS_STACK_APPLICATION))
1506:Generated_Source\PSoC5/BL.c ****         /*******************************************************************************
1507:Generated_Source\PSoC5/BL.c ****         * The Upgradable Stack application case implies that only this application can 
1508:Generated_Source\PSoC5/BL.c ****         * perform a bootloading operation (the other one can't). So a verification 
1509:Generated_Source\PSoC5/BL.c ****         * will be run to check if the Stack application is not overwritten. 
1510:Generated_Source\PSoC5/BL.c ****         *
1511:Generated_Source\PSoC5/BL.c ****         * The Stack application is defined as the first application.
1512:Generated_Source\PSoC5/BL.c ****           * The User application is defined as the second application.
1513:Generated_Source\PSoC5/BL.c ****         *
1514:Generated_Source\PSoC5/BL.c ****         * This check is intended for the case when the Stack application is active
1515:Generated_Source\PSoC5/BL.c ****         * and performs bootloading for the User application:
1516:Generated_Source\PSoC5/BL.c ****         *  ---------------------------------------------------------------------------
1517:Generated_Source\PSoC5/BL.c ****         * |   Launcher   |       Stack     |           User app            | M2 | M1 |
1518:Generated_Source\PSoC5/BL.c ****         *  ---------------------------------------------------------------------------
1519:Generated_Source\PSoC5/BL.c ****         *                |<-------------------lastRow -------------------->|
1520:Generated_Source\PSoC5/BL.c ****         *******************************************************************************/
1521:Generated_Source\PSoC5/BL.c ****         lastRow = (uint16) BL_GetMetadata(BL_GET_BTLDR_LAST_ROW,
ARM GAS  C:\Users\wormley\AppData\Local\Temp\ccWx7Wvt.s 			page 31


1522:Generated_Source\PSoC5/BL.c ****                                                         BL_USER_APPLICATION);    
1523:Generated_Source\PSoC5/BL.c ****     
1524:Generated_Source\PSoC5/BL.c ****     #else /* Classic Dual-app and the general Launcher-Combination use cases */    
1525:Generated_Source\PSoC5/BL.c ****         /*******************************************************************************
1526:Generated_Source\PSoC5/BL.c ****         * The number of flash rows available for both Bootloadable applications:
1527:Generated_Source\PSoC5/BL.c ****         *
1528:Generated_Source\PSoC5/BL.c ****         * The first Bootloadable application is active:
1529:Generated_Source\PSoC5/BL.c ****         *  ---------------------------------------------------------------------------
1530:Generated_Source\PSoC5/BL.c ****         * | Bootloader   | Bootloadable # 1 |     | Bootloadable # 2 |     | M2 | M1 |
1531:Generated_Source\PSoC5/BL.c ****         *  ---------------------------------------------------------------------------
1532:Generated_Source\PSoC5/BL.c ****         *                |<-------------------lastRow -------------------->|
1533:Generated_Source\PSoC5/BL.c ****         *
1534:Generated_Source\PSoC5/BL.c ****         * The second Bootloadable application is active:
1535:Generated_Source\PSoC5/BL.c ****         *  ---------------------------------------------------------------------------
1536:Generated_Source\PSoC5/BL.c ****         * | Bootloader   | Bootloadable # 1 |     | Bootloadable # 2 |     | M2 | M1 |
1537:Generated_Source\PSoC5/BL.c ****         *  ---------------------------------------------------------------------------
1538:Generated_Source\PSoC5/BL.c ****         *                                         |<-------lastRow-------->|
1539:Generated_Source\PSoC5/BL.c ****         *******************************************************************************/
1540:Generated_Source\PSoC5/BL.c ****         lastRow = (uint16)(CY_FLASH_NUMBER_ROWS - BL_NUMBER_OF_METADATA_ROWS - firstRow);
1541:Generated_Source\PSoC5/BL.c **** 
1542:Generated_Source\PSoC5/BL.c ****         /*******************************************************************************
1543:Generated_Source\PSoC5/BL.c ****         * The number of flash rows available for the active Bootloadable application:
1544:Generated_Source\PSoC5/BL.c ****         *
1545:Generated_Source\PSoC5/BL.c ****         * The first Bootloadable application is active: the number of flash rows available
1546:Generated_Source\PSoC5/BL.c ****         * for both Bootloadable applications should be divided by 2, meaning 2 
1547:Generated_Source\PSoC5/BL.c ****         * Bootloadable applications should fit there.
1548:Generated_Source\PSoC5/BL.c ****         *
1549:Generated_Source\PSoC5/BL.c ****         * The second Bootloadable application is active: the number of flash rows available
1550:Generated_Source\PSoC5/BL.c ****         * for both Bootloadable applications should be divided by 1, meaning 1 
1551:Generated_Source\PSoC5/BL.c ****         * Bootloadable application should fit there.
1552:Generated_Source\PSoC5/BL.c ****         *******************************************************************************/
1553:Generated_Source\PSoC5/BL.c ****         lastRow = (uint16)(lastRow / (uint8)(BL_NUMBER_OF_BTLDBLE_APPS - appNumber));
1554:Generated_Source\PSoC5/BL.c **** 
1555:Generated_Source\PSoC5/BL.c ****         /*******************************************************************************
1556:Generated_Source\PSoC5/BL.c ****         * The last row equals the first row plus the number of rows available for
1557:Generated_Source\PSoC5/BL.c ****         * each Bootloadable application. That gives the flash row number right
1558:Generated_Source\PSoC5/BL.c ****         * beyond the valid range, so we subtract 1.
1559:Generated_Source\PSoC5/BL.c ****         *
1560:Generated_Source\PSoC5/BL.c ****         * The first Bootloadable application is active:
1561:Generated_Source\PSoC5/BL.c ****         *  ---------------------------------------------------------------------------
1562:Generated_Source\PSoC5/BL.c ****         * | Bootloader   | Bootloadable # 1 |     | Bootloadable # 2 |     | M2 | M1 |
1563:Generated_Source\PSoC5/BL.c ****         *  ---------------------------------------------------------------------------
1564:Generated_Source\PSoC5/BL.c ****         * |<----------------lastRow ------------->|
1565:Generated_Source\PSoC5/BL.c ****         *
1566:Generated_Source\PSoC5/BL.c ****         * The second Bootloadable application is active:
1567:Generated_Source\PSoC5/BL.c ****         *  ---------------------------------------------------------------------------
1568:Generated_Source\PSoC5/BL.c ****         * | Bootloader   | Bootloadable # 1 |     | Bootloadable # 2 |     | M2 | M1 |
1569:Generated_Source\PSoC5/BL.c ****         *  ---------------------------------------------------------------------------
1570:Generated_Source\PSoC5/BL.c ****         * |<-----------------------------lastRow-------------------------->|
1571:Generated_Source\PSoC5/BL.c ****         *******************************************************************************/
1572:Generated_Source\PSoC5/BL.c ****         lastRow = (firstRow + lastRow) - 1u;
1573:Generated_Source\PSoC5/BL.c ****     #endif /*(0u == BL_IS_STACK_APPLICATION)*/    
1574:Generated_Source\PSoC5/BL.c **** 
1575:Generated_Source\PSoC5/BL.c ****         /*******************************************************************************
1576:Generated_Source\PSoC5/BL.c ****         * 1. Refuses to write a row within the range of the active application.
1577:Generated_Source\PSoC5/BL.c ****         *
1578:Generated_Source\PSoC5/BL.c ****         *  The first Bootloadable application is active:
ARM GAS  C:\Users\wormley\AppData\Local\Temp\ccWx7Wvt.s 			page 32


1579:Generated_Source\PSoC5/BL.c ****         *   ---------------------------------------------------------------------------
1580:Generated_Source\PSoC5/BL.c ****         *  | Bootloader   | Bootloadable # 1 |     | Bootloadable # 2 |     | M2 | M1 |
1581:Generated_Source\PSoC5/BL.c ****         *   ---------------------------------------------------------------------------
1582:Generated_Source\PSoC5/BL.c ****         *  |<----------------lastRow ------------->|
1583:Generated_Source\PSoC5/BL.c ****         *  |<--firstRow---|>
1584:Generated_Source\PSoC5/BL.c ****         *                 |<-------protected------>|
1585:Generated_Source\PSoC5/BL.c ****         *
1586:Generated_Source\PSoC5/BL.c ****         *  the second Bootloadable application is active:
1587:Generated_Source\PSoC5/BL.c ****         *   ---------------------------------------------------------------------------
1588:Generated_Source\PSoC5/BL.c ****         *  | Bootloader   | Bootloadable # 1 |     | Bootloadable # 2 |     | M2 | M1 |
1589:Generated_Source\PSoC5/BL.c ****         *   ---------------------------------------------------------------------------
1590:Generated_Source\PSoC5/BL.c ****         *  |<-------------firstRow-----------------|>
1591:Generated_Source\PSoC5/BL.c ****         *  |<-----------------------------lastRow-------------------------->|
1592:Generated_Source\PSoC5/BL.c ****         *                                          |<-------protected------>|
1593:Generated_Source\PSoC5/BL.c ****         *
1594:Generated_Source\PSoC5/BL.c ****         * 2. Refuses to write to the row that contains metadata of the active
1595:Generated_Source\PSoC5/BL.c ****         *    Bootloadable application.
1596:Generated_Source\PSoC5/BL.c ****         *
1597:Generated_Source\PSoC5/BL.c ****         *******************************************************************************/
1598:Generated_Source\PSoC5/BL.c ****         if (((row >= firstRow) && (row <= lastRow)) || ((arrayNumber == BL_MD_FLASH_ARRAY_NUM) && \
1599:Generated_Source\PSoC5/BL.c ****             (rowNumInArray == BL_MD_ROW_NUM(appNumber))))
1600:Generated_Source\PSoC5/BL.c ****         {
1601:Generated_Source\PSoC5/BL.c ****             ackCode = BL_ERR_ACTIVE;
1602:Generated_Source\PSoC5/BL.c ****         }
1603:Generated_Source\PSoC5/BL.c ****     }
1604:Generated_Source\PSoC5/BL.c ****     else /*(appNumber < BL_MAX_NUM_OF_BTLDB)*/
1605:Generated_Source\PSoC5/BL.c ****     {
1606:Generated_Source\PSoC5/BL.c ****         ackCode = BL_ERR_ACTIVE;
1607:Generated_Source\PSoC5/BL.c ****     }
1608:Generated_Source\PSoC5/BL.c ****     
1609:Generated_Source\PSoC5/BL.c ****     return ackCode;
1610:Generated_Source\PSoC5/BL.c **** }
1611:Generated_Source\PSoC5/BL.c **** #endif  /* (0u != BL_DUAL_APP_BOOTLOADER) || \
1612:Generated_Source\PSoC5/BL.c ****            (CYDEV_PROJ_TYPE == CYDEV_PROJ_TYPE_LOADABLEANDBOOTLOADER) */
1613:Generated_Source\PSoC5/BL.c **** 
1614:Generated_Source\PSoC5/BL.c **** #if (CYDEV_PROJ_TYPE != CYDEV_PROJ_TYPE_LAUNCHER)
1615:Generated_Source\PSoC5/BL.c **** /*******************************************************************************
1616:Generated_Source\PSoC5/BL.c **** * Function Name: BL_HostLink
1617:Generated_Source\PSoC5/BL.c **** ****************************************************************************//**
1618:Generated_Source\PSoC5/BL.c **** *
1619:Generated_Source\PSoC5/BL.c **** * \brief
1620:Generated_Source\PSoC5/BL.c **** *  Causes the Bootloader to attempt to read data being transmitted by the
1621:Generated_Source\PSoC5/BL.c **** *  host application.  If data is sent from the host, this establishes the
1622:Generated_Source\PSoC5/BL.c **** *  communication interface to process all requests.
1623:Generated_Source\PSoC5/BL.c **** *
1624:Generated_Source\PSoC5/BL.c **** * \param
1625:Generated_Source\PSoC5/BL.c **** *  timeOut:
1626:Generated_Source\PSoC5/BL.c **** *   The amount of time to listen for data before giving up. The timeout is
1627:Generated_Source\PSoC5/BL.c **** *   measured in 10s of ms.  Use 0 for an infinite wait.
1628:Generated_Source\PSoC5/BL.c **** * 
1629:Generated_Source\PSoC5/BL.c **** * \details
1630:Generated_Source\PSoC5/BL.c **** *  This function is public only for Launcher-Combination architecture. For 
1631:Generated_Source\PSoC5/BL.c **** *  Classic Bootloader it is static, meaning private. 
1632:Generated_Source\PSoC5/BL.c **** *******************************************************************************/
1633:Generated_Source\PSoC5/BL.c **** #if (CYDEV_PROJ_TYPE != CYDEV_PROJ_TYPE_LOADABLEANDBOOTLOADER)
1634:Generated_Source\PSoC5/BL.c **** static void BL_HostLink(uint8 timeOut) CYLARGE 
1635:Generated_Source\PSoC5/BL.c ****                    
ARM GAS  C:\Users\wormley\AppData\Local\Temp\ccWx7Wvt.s 			page 33


1636:Generated_Source\PSoC5/BL.c **** #else
1637:Generated_Source\PSoC5/BL.c **** void BL_HostLink(uint8 timeOut) CYLARGE 
1638:Generated_Source\PSoC5/BL.c ****                    
1639:Generated_Source\PSoC5/BL.c **** #endif /*(CYDEV_PROJ_TYPE != CYDEV_PROJ_TYPE_LOADABLEANDBOOTLOADER)*/    
1640:Generated_Source\PSoC5/BL.c **** {
1641:Generated_Source\PSoC5/BL.c ****     uint16    CYDATA numberRead;
1642:Generated_Source\PSoC5/BL.c ****     uint16    CYDATA rspSize;
1643:Generated_Source\PSoC5/BL.c ****     uint8     CYDATA ackCode;
1644:Generated_Source\PSoC5/BL.c ****     uint16    CYDATA pktChecksum;
1645:Generated_Source\PSoC5/BL.c ****     cystatus  CYDATA readStat;
1646:Generated_Source\PSoC5/BL.c ****     uint16    CYDATA pktSize    = 0u;
1647:Generated_Source\PSoC5/BL.c ****     uint8     CYDATA timeOutCnt = 10u;
1648:Generated_Source\PSoC5/BL.c **** 
1649:Generated_Source\PSoC5/BL.c ****     #if(0u != BL_FAST_APP_VALIDATION)
1650:Generated_Source\PSoC5/BL.c ****         uint8 CYDATA clearedMetaData = 0u;
1651:Generated_Source\PSoC5/BL.c ****     #endif  /* (0u != BL_FAST_APP_VALIDATION) */
1652:Generated_Source\PSoC5/BL.c **** 
1653:Generated_Source\PSoC5/BL.c **** #if (CYDEV_PROJ_TYPE == CYDEV_PROJ_TYPE_LOADABLEANDBOOTLOADER)
1654:Generated_Source\PSoC5/BL.c ****     static  CYBIT communicationState = BL_COMMUNICATION_STATE_IDLE; 
1655:Generated_Source\PSoC5/BL.c ****     static uint16 CYDATA dataOffset = 0u; 
1656:Generated_Source\PSoC5/BL.c ****     uint16  CYDATA btldrLastRow = 0xFFFFu;
1657:Generated_Source\PSoC5/BL.c ****     uint8 needToCopyFlag = 0u;
1658:Generated_Source\PSoC5/BL.c ****     uint32 app2StartAddress = BL_GetMetadata(BL_GET_BTLDB_ADDR, 
1659:Generated_Source\PSoC5/BL.c ****                               BL_MD_BTLDB_ACTIVE_1);
1660:Generated_Source\PSoC5/BL.c **** #else
1661:Generated_Source\PSoC5/BL.c ****     CYBIT     communicationState = BL_COMMUNICATION_STATE_IDLE;
1662:Generated_Source\PSoC5/BL.c ****     uint16 CYDATA dataOffset = 0u; 
1663:Generated_Source\PSoC5/BL.c **** #endif /*CYDEV_PROJ_TYPE == CYDEV_PROJ_TYPE_LOADABLEANDBOOTLOADER*/
1664:Generated_Source\PSoC5/BL.c **** 
1665:Generated_Source\PSoC5/BL.c ****     uint8     packetBuffer[BL_SIZEOF_COMMAND_BUFFER];
1666:Generated_Source\PSoC5/BL.c ****     uint8     dataBuffer  [BL_SIZEOF_COMMAND_BUFFER];
1667:Generated_Source\PSoC5/BL.c **** 
1668:Generated_Source\PSoC5/BL.c **** 
1669:Generated_Source\PSoC5/BL.c ****     #if(!CY_PSOC4)
1670:Generated_Source\PSoC5/BL.c ****         #if(0u == BL_FAST_APP_VALIDATION)
1671:Generated_Source\PSoC5/BL.c ****             #if !defined(CY_BOOT_VERSION)
1672:Generated_Source\PSoC5/BL.c **** 
1673:Generated_Source\PSoC5/BL.c ****                 /* Not required with cy_boot 4.20 */
1674:Generated_Source\PSoC5/BL.c ****                 uint8 CYXDATA BL_flashBuffer[BL_FROW_SIZE];
1675:Generated_Source\PSoC5/BL.c **** 
1676:Generated_Source\PSoC5/BL.c ****             #endif /* !defined(CY_BOOT_VERSION) */
1677:Generated_Source\PSoC5/BL.c ****         #endif  /* (0u == BL_FAST_APP_VALIDATION) */
1678:Generated_Source\PSoC5/BL.c ****     #endif  /* (CY_PSOC4) */
1679:Generated_Source\PSoC5/BL.c **** 
1680:Generated_Source\PSoC5/BL.c **** 
1681:Generated_Source\PSoC5/BL.c **** 
1682:Generated_Source\PSoC5/BL.c ****     #if(!CY_PSOC4)
1683:Generated_Source\PSoC5/BL.c ****         #if((0u == BL_FAST_APP_VALIDATION) || \
1684:Generated_Source\PSoC5/BL.c ****             (CYDEV_PROJ_TYPE == CYDEV_PROJ_TYPE_LOADABLEANDBOOTLOADER))
1685:Generated_Source\PSoC5/BL.c **** 
1686:Generated_Source\PSoC5/BL.c ****             /* Initialize flash subsystem for non-PSoC 4 devices */
1687:Generated_Source\PSoC5/BL.c ****             if (CYRET_SUCCESS != CySetTemp())
1688:Generated_Source\PSoC5/BL.c ****             {
1689:Generated_Source\PSoC5/BL.c ****                 CyHalt(0x00u);
1690:Generated_Source\PSoC5/BL.c ****             }
1691:Generated_Source\PSoC5/BL.c **** 
1692:Generated_Source\PSoC5/BL.c ****         #endif  /* (0u == BL_FAST_APP_VALIDATION) ||
ARM GAS  C:\Users\wormley\AppData\Local\Temp\ccWx7Wvt.s 			page 34


1693:Generated_Source\PSoC5/BL.c ****                    (CYDEV_PROJ_TYPE == CYDEV_PROJ_TYPE_LOADABLEANDBOOTLOADER) */
1694:Generated_Source\PSoC5/BL.c ****     #endif  /* (CY_PSOC4) */
1695:Generated_Source\PSoC5/BL.c **** 
1696:Generated_Source\PSoC5/BL.c ****     /* Initialize communications channel. */
1697:Generated_Source\PSoC5/BL.c ****     CyBtldrCommStart();
1698:Generated_Source\PSoC5/BL.c **** 
1699:Generated_Source\PSoC5/BL.c ****     /* Enable global interrupts */
1700:Generated_Source\PSoC5/BL.c ****     CyGlobalIntEnable;
1701:Generated_Source\PSoC5/BL.c **** 
1702:Generated_Source\PSoC5/BL.c ****     do
1703:Generated_Source\PSoC5/BL.c ****     {
1704:Generated_Source\PSoC5/BL.c ****         ackCode = CYRET_SUCCESS;
1705:Generated_Source\PSoC5/BL.c **** 
1706:Generated_Source\PSoC5/BL.c ****         do
1707:Generated_Source\PSoC5/BL.c ****         {
1708:Generated_Source\PSoC5/BL.c ****             readStat = CyBtldrCommRead(packetBuffer,
1709:Generated_Source\PSoC5/BL.c ****                                         BL_SIZEOF_COMMAND_BUFFER,
1710:Generated_Source\PSoC5/BL.c ****                                         &numberRead,
1711:Generated_Source\PSoC5/BL.c ****                                         (0u == timeOut) ? 0xFFu : timeOut);
1712:Generated_Source\PSoC5/BL.c ****             if (0u != timeOut)
1713:Generated_Source\PSoC5/BL.c ****             {
1714:Generated_Source\PSoC5/BL.c ****                 timeOutCnt--;
1715:Generated_Source\PSoC5/BL.c ****             }
1716:Generated_Source\PSoC5/BL.c **** 
1717:Generated_Source\PSoC5/BL.c ****         } while ( (0u != timeOutCnt) && (readStat != CYRET_SUCCESS) );
1718:Generated_Source\PSoC5/BL.c **** 
1719:Generated_Source\PSoC5/BL.c **** 
1720:Generated_Source\PSoC5/BL.c ****         if( readStat != CYRET_SUCCESS )
1721:Generated_Source\PSoC5/BL.c ****         {
1722:Generated_Source\PSoC5/BL.c ****             continue;
1723:Generated_Source\PSoC5/BL.c ****         }
1724:Generated_Source\PSoC5/BL.c **** 
1725:Generated_Source\PSoC5/BL.c ****         if((numberRead < BL_MIN_PKT_SIZE) ||
1726:Generated_Source\PSoC5/BL.c ****            (packetBuffer[BL_SOP_ADDR] != BL_SOP))
1727:Generated_Source\PSoC5/BL.c ****         {
1728:Generated_Source\PSoC5/BL.c ****             ackCode = BL_ERR_DATA;
1729:Generated_Source\PSoC5/BL.c ****         }
1730:Generated_Source\PSoC5/BL.c ****         else
1731:Generated_Source\PSoC5/BL.c ****         {
1732:Generated_Source\PSoC5/BL.c ****             pktSize = ((uint16)((uint16)packetBuffer[BL_SIZE_ADDR + 1u] << 8u)) |
1733:Generated_Source\PSoC5/BL.c ****                                packetBuffer[BL_SIZE_ADDR];
1734:Generated_Source\PSoC5/BL.c **** 
1735:Generated_Source\PSoC5/BL.c **** 
1736:Generated_Source\PSoC5/BL.c ****             /**************************************************************************************
1737:Generated_Source\PSoC5/BL.c ****             * If the whole packet length exceeds the number of bytes that have been read by the com
1738:Generated_Source\PSoC5/BL.c ****             * component or the size of the buffer that is reserved for the packet, then give an err
1739:Generated_Source\PSoC5/BL.c ****             **************************************************************************************/
1740:Generated_Source\PSoC5/BL.c ****             if (((pktSize + BL_MIN_PKT_SIZE) > numberRead) || 
1741:Generated_Source\PSoC5/BL.c ****                 ((pktSize + BL_MIN_PKT_SIZE) > BL_SIZEOF_COMMAND_BUFFER)) 
1742:Generated_Source\PSoC5/BL.c ****             {
1743:Generated_Source\PSoC5/BL.c ****                 ackCode = BL_ERR_LENGTH;
1744:Generated_Source\PSoC5/BL.c ****             }
1745:Generated_Source\PSoC5/BL.c ****             else /* Packet length is OK*/
1746:Generated_Source\PSoC5/BL.c ****             {
1747:Generated_Source\PSoC5/BL.c ****                 pktChecksum = ((uint16)((uint16)packetBuffer[BL_CHK_ADDR(pktSize) + 1u] << 8u)) |
1748:Generated_Source\PSoC5/BL.c ****                                    packetBuffer[BL_CHK_ADDR(pktSize)];
1749:Generated_Source\PSoC5/BL.c ****    
ARM GAS  C:\Users\wormley\AppData\Local\Temp\ccWx7Wvt.s 			page 35


1750:Generated_Source\PSoC5/BL.c ****                 if (packetBuffer[BL_EOP_ADDR(pktSize)] != BL_EOP)
1751:Generated_Source\PSoC5/BL.c ****                 {
1752:Generated_Source\PSoC5/BL.c ****                     ackCode = BL_ERR_DATA;
1753:Generated_Source\PSoC5/BL.c ****                 }
1754:Generated_Source\PSoC5/BL.c ****                 else if(pktChecksum != BL_CalcPacketChecksum(packetBuffer,
1755:Generated_Source\PSoC5/BL.c ****                                                                         pktSize + BL_DATA_ADDR))
1756:Generated_Source\PSoC5/BL.c ****                 {
1757:Generated_Source\PSoC5/BL.c ****                     ackCode = BL_ERR_CHECKSUM;
1758:Generated_Source\PSoC5/BL.c ****                 }
1759:Generated_Source\PSoC5/BL.c ****                 else
1760:Generated_Source\PSoC5/BL.c ****                 {
1761:Generated_Source\PSoC5/BL.c ****                     /* Empty section */
1762:Generated_Source\PSoC5/BL.c ****                 }
1763:Generated_Source\PSoC5/BL.c ****             }    
1764:Generated_Source\PSoC5/BL.c ****         }
1765:Generated_Source\PSoC5/BL.c **** 
1766:Generated_Source\PSoC5/BL.c ****         rspSize = BL_RSP_SIZE_0;
1767:Generated_Source\PSoC5/BL.c ****         if(ackCode == CYRET_SUCCESS)
1768:Generated_Source\PSoC5/BL.c ****         {
1769:Generated_Source\PSoC5/BL.c ****             uint8 CYDATA btldrData = packetBuffer[BL_DATA_ADDR];
1770:Generated_Source\PSoC5/BL.c **** 
1771:Generated_Source\PSoC5/BL.c ****             ackCode = BL_ERR_DATA;
1772:Generated_Source\PSoC5/BL.c ****             switch(packetBuffer[BL_CMD_ADDR])
1773:Generated_Source\PSoC5/BL.c ****             {
1774:Generated_Source\PSoC5/BL.c **** 
1775:Generated_Source\PSoC5/BL.c **** 
1776:Generated_Source\PSoC5/BL.c ****             /***************************************************************************
1777:Generated_Source\PSoC5/BL.c ****             *   Get metadata (0x3C)
1778:Generated_Source\PSoC5/BL.c ****             ***************************************************************************/
1779:Generated_Source\PSoC5/BL.c ****             #if(0u != BL_CMD_GET_METADATA)
1780:Generated_Source\PSoC5/BL.c **** 
1781:Generated_Source\PSoC5/BL.c ****                 case BL_COMMAND_GET_METADATA:
1782:Generated_Source\PSoC5/BL.c **** 
1783:Generated_Source\PSoC5/BL.c ****                     if((BL_COMMUNICATION_STATE_ACTIVE == communicationState) && (pktSize == 1u))
1784:Generated_Source\PSoC5/BL.c ****                     {
1785:Generated_Source\PSoC5/BL.c ****                         if (btldrData >= BL_MAX_NUM_OF_BTLDB)
1786:Generated_Source\PSoC5/BL.c ****                         {
1787:Generated_Source\PSoC5/BL.c ****                             ackCode = BL_ERR_APP;
1788:Generated_Source\PSoC5/BL.c ****                         }
1789:Generated_Source\PSoC5/BL.c ****                         else if(CYRET_SUCCESS == BL_ValidateBootloadable(btldrData))
1790:Generated_Source\PSoC5/BL.c ****                         {
1791:Generated_Source\PSoC5/BL.c ****                             #if(CY_PSOC3)
1792:Generated_Source\PSoC5/BL.c ****                                 (void) memcpy(&packetBuffer[BL_DATA_ADDR],
1793:Generated_Source\PSoC5/BL.c ****                                             ((uint8  CYCODE *) (BL_MD_BASE_ADDR(btldrData))),
1794:Generated_Source\PSoC5/BL.c ****                                             (int8)BL_GET_METADATA_RESPONSE_SIZE);
1795:Generated_Source\PSoC5/BL.c ****                             #else
1796:Generated_Source\PSoC5/BL.c ****                                 (void) memcpy(&packetBuffer[BL_DATA_ADDR],
1797:Generated_Source\PSoC5/BL.c ****                                             (uint8 *) BL_MD_BASE_ADDR(btldrData),
1798:Generated_Source\PSoC5/BL.c ****                                             BL_GET_METADATA_RESPONSE_SIZE);
1799:Generated_Source\PSoC5/BL.c ****                             #endif  /* (CY_PSOC3) */
1800:Generated_Source\PSoC5/BL.c **** 
1801:Generated_Source\PSoC5/BL.c ****                             rspSize = BL_RSP_SIZE_GET_METADATA;
1802:Generated_Source\PSoC5/BL.c ****                             ackCode = CYRET_SUCCESS;
1803:Generated_Source\PSoC5/BL.c ****                         }
1804:Generated_Source\PSoC5/BL.c ****                         else
1805:Generated_Source\PSoC5/BL.c ****                         {
1806:Generated_Source\PSoC5/BL.c ****                             ackCode = BL_ERR_APP;
ARM GAS  C:\Users\wormley\AppData\Local\Temp\ccWx7Wvt.s 			page 36


1807:Generated_Source\PSoC5/BL.c ****                         }
1808:Generated_Source\PSoC5/BL.c ****                     }
1809:Generated_Source\PSoC5/BL.c ****                     break;
1810:Generated_Source\PSoC5/BL.c **** 
1811:Generated_Source\PSoC5/BL.c ****             #endif  /* (0u != BL_CMD_GET_METADATA) */
1812:Generated_Source\PSoC5/BL.c **** 
1813:Generated_Source\PSoC5/BL.c **** 
1814:Generated_Source\PSoC5/BL.c ****             /***************************************************************************
1815:Generated_Source\PSoC5/BL.c ****             *   Verify application checksum (0x31)
1816:Generated_Source\PSoC5/BL.c ****             ***************************************************************************/
1817:Generated_Source\PSoC5/BL.c ****         #if (0u != BL_CMD_VERIFY_APP_CHKSUM_AVAIL)     
1818:Generated_Source\PSoC5/BL.c ****             case BL_COMMAND_CHECKSUM:
1819:Generated_Source\PSoC5/BL.c **** 
1820:Generated_Source\PSoC5/BL.c ****                 if((BL_COMMUNICATION_STATE_ACTIVE == communicationState) && (pktSize == 0u))
1821:Generated_Source\PSoC5/BL.c ****                 {
1822:Generated_Source\PSoC5/BL.c ****                     packetBuffer[BL_DATA_ADDR] =
1823:Generated_Source\PSoC5/BL.c ****                             (uint8)(BL_ValidateBootloadable(BL_activeApp) == CYRET_SUCCESS);
1824:Generated_Source\PSoC5/BL.c **** 
1825:Generated_Source\PSoC5/BL.c ****                     rspSize = BL_RSP_SIZE_VERIFY_CHKSM;
1826:Generated_Source\PSoC5/BL.c ****                     ackCode = CYRET_SUCCESS;
1827:Generated_Source\PSoC5/BL.c ****                 }
1828:Generated_Source\PSoC5/BL.c ****                 break;
1829:Generated_Source\PSoC5/BL.c ****         #endif /* (0u != BL_CMD_VERIFY_APP_CHKSUM_AVAIL) */
1830:Generated_Source\PSoC5/BL.c **** 
1831:Generated_Source\PSoC5/BL.c ****             /*****************************************************************************
1832:Generated_Source\PSoC5/BL.c ****             *   Verify row (0x45u)
1833:Generated_Source\PSoC5/BL.c ****             ***************************************************************************/
1834:Generated_Source\PSoC5/BL.c ****         #if(0u != BL_CMD_VERIFY_FLS_ROW_AVAIL)
1835:Generated_Source\PSoC5/BL.c ****             case BL_COMMAND_VERIFY_FLS_ROW:
1836:Generated_Source\PSoC5/BL.c **** 
1837:Generated_Source\PSoC5/BL.c ****                 /* Packet size is either 3 (data is already in buffer) or (3u + BL_FROW_SIZE),
1838:Generated_Source\PSoC5/BL.c ****                  * then data is in packetBuffer[]*/
1839:Generated_Source\PSoC5/BL.c ****                 if ((BL_COMMUNICATION_STATE_ACTIVE == communicationState) && ((3u == pktSize) || 
1840:Generated_Source\PSoC5/BL.c ****                    ((3u + BL_FROW_SIZE) == pktSize)))
1841:Generated_Source\PSoC5/BL.c ****                 {
1842:Generated_Source\PSoC5/BL.c ****                     uint16 CYDATA rowNum = ((uint16)((uint16)packetBuffer[BL_DATA_ADDR + 2u] << 8u)
1843:Generated_Source\PSoC5/BL.c ****                                                              packetBuffer[BL_DATA_ADDR + 1u];
1844:Generated_Source\PSoC5/BL.c ****                     
1845:Generated_Source\PSoC5/BL.c ****                     uint32 CYDATA startAddr;
1846:Generated_Source\PSoC5/BL.c ****                     uint16 upperRange = 0u;
1847:Generated_Source\PSoC5/BL.c ****                 #if (!CY_PSOC4)
1848:Generated_Source\PSoC5/BL.c ****                     uint16 CYDATA rowSize; 
1849:Generated_Source\PSoC5/BL.c ****                 #endif /*(!CY_PSOC4)*/    
1850:Generated_Source\PSoC5/BL.c ****                     
1851:Generated_Source\PSoC5/BL.c ****                     ackCode = CYRET_SUCCESS;
1852:Generated_Source\PSoC5/BL.c ****                     rspSize = BL_RSP_SIZE_0;
1853:Generated_Source\PSoC5/BL.c ****                         
1854:Generated_Source\PSoC5/BL.c ****                     if (3u == pktSize)
1855:Generated_Source\PSoC5/BL.c ****                     {
1856:Generated_Source\PSoC5/BL.c ****                         /* Do nothing, data is already in dataBuffer[] */
1857:Generated_Source\PSoC5/BL.c ****                     }
1858:Generated_Source\PSoC5/BL.c ****                     else 
1859:Generated_Source\PSoC5/BL.c ****                     {
1860:Generated_Source\PSoC5/BL.c ****                     #if (CY_PSOC3)
1861:Generated_Source\PSoC5/BL.c ****                         /*Data is in packetBuffer[], needs to be copied to dataBuffer[]*/
1862:Generated_Source\PSoC5/BL.c ****                         (void) memcpy(dataBuffer, &packetBuffer[BL_DATA_ADDR + 3u],
1863:Generated_Source\PSoC5/BL.c ****                                       (int16)pktSize - 3);
ARM GAS  C:\Users\wormley\AppData\Local\Temp\ccWx7Wvt.s 			page 37


1864:Generated_Source\PSoC5/BL.c ****                     #else              
1865:Generated_Source\PSoC5/BL.c ****                         /*Data is in packetBuffer[], needs to be copied to dataBuffer[]*/
1866:Generated_Source\PSoC5/BL.c ****                         (void) memcpy(dataBuffer, &packetBuffer[BL_DATA_ADDR + 3u],
1867:Generated_Source\PSoC5/BL.c ****                                       (uint32)pktSize - 3u);
1868:Generated_Source\PSoC5/BL.c ****                     #endif /*CY_PSOC3)*/              
1869:Generated_Source\PSoC5/BL.c ****                     }
1870:Generated_Source\PSoC5/BL.c ****                         
1871:Generated_Source\PSoC5/BL.c ****                 #if (!CY_PSOC4) 
1872:Generated_Source\PSoC5/BL.c ****                     if((btldrData >= BL_FIRST_EE_ARRAYID) &&
1873:Generated_Source\PSoC5/BL.c ****                        (btldrData <= BL_LAST_EE_ARRAYID))
1874:Generated_Source\PSoC5/BL.c ****                     {
1875:Generated_Source\PSoC5/BL.c ****                         /* EEPROM */
1876:Generated_Source\PSoC5/BL.c ****                         /* Both PSoC 3 and PSoC 5LP architecture have one EEPROM array. */
1877:Generated_Source\PSoC5/BL.c ****                         startAddr = CY_EEPROM_BASE + ((uint32)rowNum * CYDEV_EEPROM_ROW_SIZE);
1878:Generated_Source\PSoC5/BL.c ****                         rowSize = CYDEV_EEPROM_ROW_SIZE;
1879:Generated_Source\PSoC5/BL.c ****                         upperRange = BL_NUMBER_OF_EEPROM_SECTORS * BL_NUMBER_OF_ROWS_IN_EEPROM_SECT
1880:Generated_Source\PSoC5/BL.c ****                     }
1881:Generated_Source\PSoC5/BL.c ****                     else if (btldrData < CY_FLASH_NUMBER_ARRAYS)    
1882:Generated_Source\PSoC5/BL.c ****                     {
1883:Generated_Source\PSoC5/BL.c ****                         startAddr = CY_FLASH_BASE + ((uint32)btldrData * CYDEV_FLS_SECTOR_SIZE) +
1884:Generated_Source\PSoC5/BL.c ****                                                      ((uint32)rowNum * CYDEV_FLS_ROW_SIZE);
1885:Generated_Source\PSoC5/BL.c ****                         rowSize = CYDEV_FLS_ROW_SIZE;        
1886:Generated_Source\PSoC5/BL.c ****                         upperRange = BL_NUMBER_OF_ROWS_IN_ARRAY;                        
1887:Generated_Source\PSoC5/BL.c ****                     }
1888:Generated_Source\PSoC5/BL.c ****                     else
1889:Generated_Source\PSoC5/BL.c ****                     {
1890:Generated_Source\PSoC5/BL.c ****                         ackCode = BL_ERR_ARRAY;
1891:Generated_Source\PSoC5/BL.c ****                         break;                              
1892:Generated_Source\PSoC5/BL.c ****                     }
1893:Generated_Source\PSoC5/BL.c **** 
1894:Generated_Source\PSoC5/BL.c ****                     /*Checking if row number is within array address range*/
1895:Generated_Source\PSoC5/BL.c ****                     ackCode = BL_CHECK_ROW_NUMBER(rowNum, upperRange);
1896:Generated_Source\PSoC5/BL.c ****                     
1897:Generated_Source\PSoC5/BL.c ****                     if (CYRET_SUCCESS != ackCode)
1898:Generated_Source\PSoC5/BL.c ****                     {
1899:Generated_Source\PSoC5/BL.c ****                         break;
1900:Generated_Source\PSoC5/BL.c ****                     }
1901:Generated_Source\PSoC5/BL.c ****                     
1902:Generated_Source\PSoC5/BL.c ****                     ackCode = BL_VerifyRow(startAddr, dataBuffer, rowSize);
1903:Generated_Source\PSoC5/BL.c ****                     
1904:Generated_Source\PSoC5/BL.c ****                     /******************************************************************************
1905:Generated_Source\PSoC5/BL.c ****                     * If flash row check has completed successfully and ECC is disabled and there i
1906:Generated_Source\PSoC5/BL.c ****                     * data in the buffer for ECC row.
1907:Generated_Source\PSoC5/BL.c ****                     *******************************************************************************
1908:Generated_Source\PSoC5/BL.c ****                     #if (CYDEV_ECC_ENABLE == 0u)
1909:Generated_Source\PSoC5/BL.c ****                         if ((CYRET_SUCCESS == ackCode) && (btldrData < CY_FLASH_NUMBER_ARRAYS) && (
1910:Generated_Source\PSoC5/BL.c ****                         {
1911:Generated_Source\PSoC5/BL.c ****                             startAddr = CYDEV_ECC_BASE + ((uint32)btldrData * (CYDEV_FLS_SECTOR_SIZ
1912:Generated_Source\PSoC5/BL.c ****                                         ((uint32)rowNum * CYDEV_ECC_ROW_SIZE);
1913:Generated_Source\PSoC5/BL.c ****                                                 
1914:Generated_Source\PSoC5/BL.c ****                             ackCode = BL_VerifyRow(startAddr, &dataBuffer[rowSize], (uint16)CYDEV_E
1915:Generated_Source\PSoC5/BL.c ****                         }
1916:Generated_Source\PSoC5/BL.c ****                     #endif /*(CYDEV_ECC_ENABLE == 0u)*/
1917:Generated_Source\PSoC5/BL.c ****                     
1918:Generated_Source\PSoC5/BL.c ****                 #else /*CY_PSOC4*/
1919:Generated_Source\PSoC5/BL.c ****                     if (btldrData < CY_FLASH_NUMBER_ARRAYS)
1920:Generated_Source\PSoC5/BL.c ****                     {
ARM GAS  C:\Users\wormley\AppData\Local\Temp\ccWx7Wvt.s 			page 38


1921:Generated_Source\PSoC5/BL.c ****                         startAddr = CY_FLASH_BASE + ((uint32)btldrData * CYDEV_FLS_SECTOR_SIZE)
1922:Generated_Source\PSoC5/BL.c ****                                             + ((uint32)rowNum * CYDEV_FLS_ROW_SIZE);
1923:Generated_Source\PSoC5/BL.c **** 
1924:Generated_Source\PSoC5/BL.c ****                         upperRange = BL_NUMBER_OF_ROWS_IN_ARRAY;         
1925:Generated_Source\PSoC5/BL.c ****                         
1926:Generated_Source\PSoC5/BL.c ****                         /*Checking if row number is within array address range*/
1927:Generated_Source\PSoC5/BL.c ****                         ackCode = BL_CHECK_ROW_NUMBER(rowNum, upperRange);
1928:Generated_Source\PSoC5/BL.c ****                     
1929:Generated_Source\PSoC5/BL.c ****                         if (CYRET_SUCCESS != ackCode)
1930:Generated_Source\PSoC5/BL.c ****                         {
1931:Generated_Source\PSoC5/BL.c ****                             break;
1932:Generated_Source\PSoC5/BL.c ****                         }
1933:Generated_Source\PSoC5/BL.c ****                         
1934:Generated_Source\PSoC5/BL.c ****                         ackCode = BL_VerifyRow(startAddr, dataBuffer, (uint16)CYDEV_FLS_ROW_SIZE);
1935:Generated_Source\PSoC5/BL.c ****                     }
1936:Generated_Source\PSoC5/BL.c ****                     else
1937:Generated_Source\PSoC5/BL.c ****                     {
1938:Generated_Source\PSoC5/BL.c ****                         ackCode = BL_ERR_ARRAY;
1939:Generated_Source\PSoC5/BL.c ****                         break;                     
1940:Generated_Source\PSoC5/BL.c ****                     }
1941:Generated_Source\PSoC5/BL.c ****                 #endif  /* (!CY_PSOC4) */
1942:Generated_Source\PSoC5/BL.c ****                 
1943:Generated_Source\PSoC5/BL.c ****                 } 
1944:Generated_Source\PSoC5/BL.c ****                 break;
1945:Generated_Source\PSoC5/BL.c ****         #endif /*(0u != BL_CMD_VERIFY_ROW_FLS_AVAIL)*/
1946:Generated_Source\PSoC5/BL.c **** 
1947:Generated_Source\PSoC5/BL.c ****             /***************************************************************************
1948:Generated_Source\PSoC5/BL.c ****             *   Get flash size (0x32)
1949:Generated_Source\PSoC5/BL.c ****             ***************************************************************************/
1950:Generated_Source\PSoC5/BL.c ****             #if(0u != BL_CMD_GET_FLASH_SIZE_AVAIL)
1951:Generated_Source\PSoC5/BL.c **** 
1952:Generated_Source\PSoC5/BL.c ****                 case BL_COMMAND_REPORT_SIZE:
1953:Generated_Source\PSoC5/BL.c **** 
1954:Generated_Source\PSoC5/BL.c ****                     /* btldrData - holds flash array ID sent by host */
1955:Generated_Source\PSoC5/BL.c ****                     if((BL_COMMUNICATION_STATE_ACTIVE == communicationState) && (pktSize == 1u))
1956:Generated_Source\PSoC5/BL.c ****                     {
1957:Generated_Source\PSoC5/BL.c ****                         if(btldrData < CY_FLASH_NUMBER_ARRAYS)
1958:Generated_Source\PSoC5/BL.c ****                         {
1959:Generated_Source\PSoC5/BL.c ****                             uint16 CYDATA startRow;
1960:Generated_Source\PSoC5/BL.c ****                             uint8  CYDATA arrayIdBtlderEnds;
1961:Generated_Source\PSoC5/BL.c **** 
1962:Generated_Source\PSoC5/BL.c ****                             /**********************************************************************
1963:Generated_Source\PSoC5/BL.c ****                             * - For the flash array where the Bootloader application ends, returns 
1964:Generated_Source\PSoC5/BL.c ****                             *   full row after the Bootloader application.
1965:Generated_Source\PSoC5/BL.c ****                             *
1966:Generated_Source\PSoC5/BL.c ****                             * - For a fully occupied flash array, the number of rows in the array i
1967:Generated_Source\PSoC5/BL.c ****                             *   because there is no space for the Bootloadable application in this 
1968:Generated_Source\PSoC5/BL.c ****                             *
1969:Generated_Source\PSoC5/BL.c ****                             * - For the arrays next to the occupied array, zero is returned.
1970:Generated_Source\PSoC5/BL.c ****                             *   The Bootloadable application can be written from those arrays begin
1971:Generated_Source\PSoC5/BL.c ****                             *
1972:Generated_Source\PSoC5/BL.c ****                             *   If this is a Bootloader that is located in an application (Combinat
1973:Generated_Source\PSoC5/BL.c ****                             *   then we do not use the BL_SizeBytes and BL_SizeBytesAccess 
1974:Generated_Source\PSoC5/BL.c ****                             *   variables, instead we take the Launcher's last row from metadata.
1975:Generated_Source\PSoC5/BL.c ****                             ***********************************************************************
1976:Generated_Source\PSoC5/BL.c ****                         #if (CYDEV_PROJ_TYPE != CYDEV_PROJ_TYPE_LOADABLEANDBOOTLOADER) 
1977:Generated_Source\PSoC5/BL.c ****                             arrayIdBtlderEnds = (uint8) (*BL_SizeBytesAccess / CY_FLASH_SIZEOF_ARRA
ARM GAS  C:\Users\wormley\AppData\Local\Temp\ccWx7Wvt.s 			page 39


1978:Generated_Source\PSoC5/BL.c **** 
1979:Generated_Source\PSoC5/BL.c ****                             if (btldrData == arrayIdBtlderEnds)
1980:Generated_Source\PSoC5/BL.c ****                             {
1981:Generated_Source\PSoC5/BL.c ****                                 startRow = (uint16) (*BL_SizeBytesAccess / CY_FLASH_SIZEOF_ROW) %
1982:Generated_Source\PSoC5/BL.c ****                                             BL_NUMBER_OF_ROWS_IN_ARRAY;
1983:Generated_Source\PSoC5/BL.c ****                             }
1984:Generated_Source\PSoC5/BL.c ****                         #else /*Combination project type*/   
1985:Generated_Source\PSoC5/BL.c ****                             btldrLastRow = (uint16)(BL_GetMetadata(BL_GET_BTLDR_LAST_ROW, \
1986:Generated_Source\PSoC5/BL.c ****                                                                                 BL_MD_BTLDB_ACTIVE_
1987:Generated_Source\PSoC5/BL.c ****                             arrayIdBtlderEnds = (uint8) (((uint32)btldrLastRow * CY_FLASH_SIZEOF_RO
1988:Generated_Source\PSoC5/BL.c ****                             if (btldrData == arrayIdBtlderEnds)
1989:Generated_Source\PSoC5/BL.c ****                             {
1990:Generated_Source\PSoC5/BL.c ****                                 startRow = (uint16)((btldrLastRow) % BL_NUMBER_OF_ROWS_IN_ARRAY);
1991:Generated_Source\PSoC5/BL.c ****                             }
1992:Generated_Source\PSoC5/BL.c ****                         #endif /*(CYDEV_PROJ_TYPE != CYDEV_PROJ_TYPE_LOADABLEANDBOOTLOADER)*/
1993:Generated_Source\PSoC5/BL.c ****                         
1994:Generated_Source\PSoC5/BL.c ****                             else if (btldrData > arrayIdBtlderEnds)
1995:Generated_Source\PSoC5/BL.c ****                             {
1996:Generated_Source\PSoC5/BL.c ****                                 startRow = BL_FIRST_ROW_IN_ARRAY;
1997:Generated_Source\PSoC5/BL.c ****                             }
1998:Generated_Source\PSoC5/BL.c ****                             else /* (btldrData < ArrayIdBtlderEnds) */
1999:Generated_Source\PSoC5/BL.c ****                             {
2000:Generated_Source\PSoC5/BL.c ****                                 startRow = BL_NUMBER_OF_ROWS_IN_ARRAY;
2001:Generated_Source\PSoC5/BL.c ****                             }
2002:Generated_Source\PSoC5/BL.c **** 
2003:Generated_Source\PSoC5/BL.c ****                             packetBuffer[BL_DATA_ADDR]      = LO8(startRow);
2004:Generated_Source\PSoC5/BL.c ****                             packetBuffer[BL_DATA_ADDR + 1u] = HI8(startRow);
2005:Generated_Source\PSoC5/BL.c **** 
2006:Generated_Source\PSoC5/BL.c ****                             packetBuffer[BL_DATA_ADDR + 2u] =
2007:Generated_Source\PSoC5/BL.c ****                                         LO8(BL_NUMBER_OF_ROWS_IN_ARRAY - 1u);
2008:Generated_Source\PSoC5/BL.c **** 
2009:Generated_Source\PSoC5/BL.c ****                             packetBuffer[BL_DATA_ADDR + 3u] =
2010:Generated_Source\PSoC5/BL.c ****                                         HI8(BL_NUMBER_OF_ROWS_IN_ARRAY - 1u);
2011:Generated_Source\PSoC5/BL.c **** 
2012:Generated_Source\PSoC5/BL.c ****                             rspSize = BL_RSP_SIZE_GET_FLASH_SIZE;
2013:Generated_Source\PSoC5/BL.c ****                             ackCode = CYRET_SUCCESS;
2014:Generated_Source\PSoC5/BL.c ****                         }
2015:Generated_Source\PSoC5/BL.c **** 
2016:Generated_Source\PSoC5/BL.c ****                     }
2017:Generated_Source\PSoC5/BL.c ****                     break;
2018:Generated_Source\PSoC5/BL.c **** 
2019:Generated_Source\PSoC5/BL.c ****             #endif  /* (0u != BL_CMD_GET_FLASH_SIZE_AVAIL) */
2020:Generated_Source\PSoC5/BL.c **** 
2021:Generated_Source\PSoC5/BL.c **** 
2022:Generated_Source\PSoC5/BL.c ****             /***************************************************************************
2023:Generated_Source\PSoC5/BL.c ****             *   Get application status (0x33)
2024:Generated_Source\PSoC5/BL.c ****             ***************************************************************************/
2025:Generated_Source\PSoC5/BL.c ****             #if ((0u != BL_DUAL_APP_BOOTLOADER) || (CYDEV_PROJ_TYPE == CYDEV_PROJ_TYPE_LOADABLEANDB
2026:Generated_Source\PSoC5/BL.c **** 
2027:Generated_Source\PSoC5/BL.c ****                 #if(0u != BL_CMD_GET_APP_STATUS_AVAIL)
2028:Generated_Source\PSoC5/BL.c **** 
2029:Generated_Source\PSoC5/BL.c ****                     case BL_COMMAND_APP_STATUS:
2030:Generated_Source\PSoC5/BL.c **** 
2031:Generated_Source\PSoC5/BL.c ****                         if((BL_COMMUNICATION_STATE_ACTIVE == communicationState) && (1u == pktSize)
2032:Generated_Source\PSoC5/BL.c ****                         {
2033:Generated_Source\PSoC5/BL.c **** 
2034:Generated_Source\PSoC5/BL.c ****                             packetBuffer[BL_DATA_ADDR] =
ARM GAS  C:\Users\wormley\AppData\Local\Temp\ccWx7Wvt.s 			page 40


2035:Generated_Source\PSoC5/BL.c ****                                 (uint8)BL_ValidateBootloadable(btldrData);
2036:Generated_Source\PSoC5/BL.c **** 
2037:Generated_Source\PSoC5/BL.c ****                             packetBuffer[BL_DATA_ADDR + 1u] =
2038:Generated_Source\PSoC5/BL.c ****                                 (uint8) BL_GetMetadata(BL_GET_BTLDB_ACTIVE, btldrData);
2039:Generated_Source\PSoC5/BL.c **** 
2040:Generated_Source\PSoC5/BL.c ****                             rspSize = BL_RSP_SIZE_GET_APP_STATUS;
2041:Generated_Source\PSoC5/BL.c ****                             ackCode = CYRET_SUCCESS;
2042:Generated_Source\PSoC5/BL.c ****                         }
2043:Generated_Source\PSoC5/BL.c ****                         break;
2044:Generated_Source\PSoC5/BL.c **** 
2045:Generated_Source\PSoC5/BL.c ****                 #endif  /* (0u != BL_CMD_GET_APP_STATUS_AVAIL) */
2046:Generated_Source\PSoC5/BL.c **** 
2047:Generated_Source\PSoC5/BL.c ****             #endif  /* (0u != BL_DUAL_APP_BOOTLOADER || (CYDEV_PROJ_TYPE == CYDEV_PROJ_TYPE_LOADABL
2048:Generated_Source\PSoC5/BL.c **** 
2049:Generated_Source\PSoC5/BL.c ****             /***************************************************************************
2050:Generated_Source\PSoC5/BL.c ****             *   Program / Erase row (0x39 / 0x34)
2051:Generated_Source\PSoC5/BL.c ****             ***************************************************************************/
2052:Generated_Source\PSoC5/BL.c ****             case BL_COMMAND_PROGRAM:
2053:Generated_Source\PSoC5/BL.c **** 
2054:Generated_Source\PSoC5/BL.c ****             /* btldrData variable holds Flash Array ID */
2055:Generated_Source\PSoC5/BL.c **** 
2056:Generated_Source\PSoC5/BL.c ****         #if (0u != BL_CMD_ERASE_ROW_AVAIL)
2057:Generated_Source\PSoC5/BL.c **** 
2058:Generated_Source\PSoC5/BL.c ****             case BL_COMMAND_ERASE:
2059:Generated_Source\PSoC5/BL.c ****                 if (BL_COMMAND_ERASE == packetBuffer[BL_CMD_ADDR])
2060:Generated_Source\PSoC5/BL.c ****                 {
2061:Generated_Source\PSoC5/BL.c ****                     if ((BL_COMMUNICATION_STATE_ACTIVE == communicationState) && (pktSize == 3u))
2062:Generated_Source\PSoC5/BL.c ****                     {
2063:Generated_Source\PSoC5/BL.c ****                         #if(!CY_PSOC4)
2064:Generated_Source\PSoC5/BL.c ****                             if((btldrData >= BL_FIRST_EE_ARRAYID) &&
2065:Generated_Source\PSoC5/BL.c ****                                (btldrData <= BL_LAST_EE_ARRAYID))
2066:Generated_Source\PSoC5/BL.c ****                             {
2067:Generated_Source\PSoC5/BL.c ****                                 /* Size of EEPROM row */
2068:Generated_Source\PSoC5/BL.c ****                                 dataOffset = CY_EEPROM_SIZEOF_ROW;
2069:Generated_Source\PSoC5/BL.c ****                             }
2070:Generated_Source\PSoC5/BL.c ****                             else
2071:Generated_Source\PSoC5/BL.c ****                             {
2072:Generated_Source\PSoC5/BL.c ****                                 /* Size of flash row (depends on ECC configuration) */
2073:Generated_Source\PSoC5/BL.c ****                                 dataOffset = BL_FROW_SIZE;
2074:Generated_Source\PSoC5/BL.c ****                             }
2075:Generated_Source\PSoC5/BL.c ****                         #else
2076:Generated_Source\PSoC5/BL.c ****                             /* Size of flash row (no ECC available) */
2077:Generated_Source\PSoC5/BL.c ****                             dataOffset = BL_FROW_SIZE;
2078:Generated_Source\PSoC5/BL.c ****                         #endif  /* (!CY_PSOC4) */
2079:Generated_Source\PSoC5/BL.c **** 
2080:Generated_Source\PSoC5/BL.c ****                         #if(CY_PSOC3)
2081:Generated_Source\PSoC5/BL.c ****                             (void) memset(dataBuffer, (char8) 0, (int16) dataOffset);
2082:Generated_Source\PSoC5/BL.c ****                         #else
2083:Generated_Source\PSoC5/BL.c ****                             (void) memset(dataBuffer, 0, (uint32) dataOffset);
2084:Generated_Source\PSoC5/BL.c ****                         #endif  /* (CY_PSOC3) */
2085:Generated_Source\PSoC5/BL.c ****                     }
2086:Generated_Source\PSoC5/BL.c ****                     else
2087:Generated_Source\PSoC5/BL.c ****                     {
2088:Generated_Source\PSoC5/BL.c ****                         break;
2089:Generated_Source\PSoC5/BL.c ****                     }
2090:Generated_Source\PSoC5/BL.c ****                 }
2091:Generated_Source\PSoC5/BL.c **** 
ARM GAS  C:\Users\wormley\AppData\Local\Temp\ccWx7Wvt.s 			page 41


2092:Generated_Source\PSoC5/BL.c ****         #endif  /* (0u != BL_CMD_ERASE_ROW_AVAIL) */
2093:Generated_Source\PSoC5/BL.c **** 
2094:Generated_Source\PSoC5/BL.c **** 
2095:Generated_Source\PSoC5/BL.c ****                 if((BL_COMMUNICATION_STATE_ACTIVE == communicationState) && (pktSize >= 3u))
2096:Generated_Source\PSoC5/BL.c ****                 {
2097:Generated_Source\PSoC5/BL.c ****                     uint16 upperRange;
2098:Generated_Source\PSoC5/BL.c **** 
2099:Generated_Source\PSoC5/BL.c ****                     /* Command may be sent along with last block of data, to program row. */
2100:Generated_Source\PSoC5/BL.c ****                     #if(CY_PSOC3)
2101:Generated_Source\PSoC5/BL.c ****                         (void) memcpy(&dataBuffer[dataOffset],
2102:Generated_Source\PSoC5/BL.c ****                                       &packetBuffer[BL_DATA_ADDR + 3u],
2103:Generated_Source\PSoC5/BL.c ****                                       (int16) pktSize - 3);
2104:Generated_Source\PSoC5/BL.c ****                     #else
2105:Generated_Source\PSoC5/BL.c ****                         (void) memcpy(&dataBuffer[dataOffset],
2106:Generated_Source\PSoC5/BL.c ****                                       &packetBuffer[BL_DATA_ADDR + 3u],
2107:Generated_Source\PSoC5/BL.c ****                                       (uint32) pktSize - 3u);
2108:Generated_Source\PSoC5/BL.c ****                     #endif  /* (CY_PSOC3) */
2109:Generated_Source\PSoC5/BL.c **** 
2110:Generated_Source\PSoC5/BL.c ****                     dataOffset += (pktSize - 3u);
2111:Generated_Source\PSoC5/BL.c **** 
2112:Generated_Source\PSoC5/BL.c ****                     #if(!CY_PSOC4)
2113:Generated_Source\PSoC5/BL.c ****                         if((btldrData >= BL_FIRST_EE_ARRAYID) &&
2114:Generated_Source\PSoC5/BL.c ****                            (btldrData <= BL_LAST_EE_ARRAYID))
2115:Generated_Source\PSoC5/BL.c ****                         {
2116:Generated_Source\PSoC5/BL.c ****                             CyEEPROM_Start();
2117:Generated_Source\PSoC5/BL.c **** 
2118:Generated_Source\PSoC5/BL.c ****                             /* Size of EEPROM row */
2119:Generated_Source\PSoC5/BL.c ****                             pktSize = CY_EEPROM_SIZEOF_ROW;                            
2120:Generated_Source\PSoC5/BL.c ****                             upperRange = BL_NUMBER_OF_EEPROM_SECTORS * BL_NUMBER_OF_ROWS_IN_EEPROM_
2121:Generated_Source\PSoC5/BL.c ****                         }
2122:Generated_Source\PSoC5/BL.c ****                         else
2123:Generated_Source\PSoC5/BL.c ****                         {
2124:Generated_Source\PSoC5/BL.c ****                             /* Size of flash row (depends on ECC configuration) */
2125:Generated_Source\PSoC5/BL.c ****                             pktSize = BL_FROW_SIZE;                            
2126:Generated_Source\PSoC5/BL.c ****                             upperRange = BL_NUMBER_OF_ROWS_IN_ARRAY;
2127:Generated_Source\PSoC5/BL.c ****                         }
2128:Generated_Source\PSoC5/BL.c ****                     #else
2129:Generated_Source\PSoC5/BL.c ****                         /* Size of flash row (no ECC available) */
2130:Generated_Source\PSoC5/BL.c ****                         pktSize = BL_FROW_SIZE;                            
2131:Generated_Source\PSoC5/BL.c ****                         upperRange = BL_NUMBER_OF_ROWS_IN_ARRAY;
2132:Generated_Source\PSoC5/BL.c ****                     #endif  /* (!CY_PSOC4) */
2133:Generated_Source\PSoC5/BL.c **** 
2134:Generated_Source\PSoC5/BL.c ****                     /* Check if we have all data to program */
2135:Generated_Source\PSoC5/BL.c ****                     if(dataOffset == pktSize)
2136:Generated_Source\PSoC5/BL.c ****                     {
2137:Generated_Source\PSoC5/BL.c ****                         uint16 row;
2138:Generated_Source\PSoC5/BL.c ****                         uint16 firstRow;    
2139:Generated_Source\PSoC5/BL.c ****                     #if ((0u != BL_DUAL_APP_BOOTLOADER) && \
2140:Generated_Source\PSoC5/BL.c ****                           (1u == BL_GOLDEN_IMAGE_AVAIL))
2141:Generated_Source\PSoC5/BL.c ****                         cystatus goldenImageValid;
2142:Generated_Source\PSoC5/BL.c ****                     #endif /*(((0u != BL_DUAL_APP_BOOTLOADER) &&
2143:Generated_Source\PSoC5/BL.c ****                                (1u == BL_GOLDEN_IMAGE_AVAIL))*/
2144:Generated_Source\PSoC5/BL.c **** 
2145:Generated_Source\PSoC5/BL.c ****                         /* Get flash/EEPROM row number inside array */
2146:Generated_Source\PSoC5/BL.c ****                         dataOffset = ((uint16)((uint16)packetBuffer[BL_DATA_ADDR + 2u] << 8u)) |
2147:Generated_Source\PSoC5/BL.c ****                                               packetBuffer[BL_DATA_ADDR + 1u];
2148:Generated_Source\PSoC5/BL.c **** 
ARM GAS  C:\Users\wormley\AppData\Local\Temp\ccWx7Wvt.s 			page 42


2149:Generated_Source\PSoC5/BL.c ****                         /*Checking if row number is within array address range*/
2150:Generated_Source\PSoC5/BL.c ****                         ackCode = BL_CHECK_ROW_NUMBER(dataOffset, upperRange);
2151:Generated_Source\PSoC5/BL.c ****                     
2152:Generated_Source\PSoC5/BL.c ****                         if (CYRET_SUCCESS != ackCode)
2153:Generated_Source\PSoC5/BL.c ****                         {
2154:Generated_Source\PSoC5/BL.c ****                             break;
2155:Generated_Source\PSoC5/BL.c ****                         }
2156:Generated_Source\PSoC5/BL.c ****                         
2157:Generated_Source\PSoC5/BL.c ****                         /* Metadata section resides in flash (cannot be in EEPROM). */
2158:Generated_Source\PSoC5/BL.c ****                         #if(!CY_PSOC4)
2159:Generated_Source\PSoC5/BL.c ****                             if(btldrData <= BL_LAST_FLASH_ARRAYID)
2160:Generated_Source\PSoC5/BL.c ****                             {
2161:Generated_Source\PSoC5/BL.c ****                         #endif  /* (!CY_PSOC4) */
2162:Generated_Source\PSoC5/BL.c ****                 
2163:Generated_Source\PSoC5/BL.c ****                         /* btldrData  - holds flash array Id sent by host */
2164:Generated_Source\PSoC5/BL.c ****                         /* dataOffset - holds flash row Id sent by host   */
2165:Generated_Source\PSoC5/BL.c ****                         row = (uint16)(btldrData * BL_NUMBER_OF_ROWS_IN_ARRAY) + dataOffset;
2166:Generated_Source\PSoC5/BL.c ****                 
2167:Generated_Source\PSoC5/BL.c ****                         /**************************************************************************
2168:Generated_Source\PSoC5/BL.c ****                         * Refuse to write to the row within range of the bootloader application
2169:Generated_Source\PSoC5/BL.c ****                         ***************************************************************************
2170:Generated_Source\PSoC5/BL.c **** 
2171:Generated_Source\PSoC5/BL.c ****                         /* First empty flash row after Bootloader application */
2172:Generated_Source\PSoC5/BL.c ****                         #if (CYDEV_PROJ_TYPE != CYDEV_PROJ_TYPE_LOADABLEANDBOOTLOADER)    
2173:Generated_Source\PSoC5/BL.c ****                             firstRow = (uint16) (*BL_SizeBytesAccess / CYDEV_FLS_ROW_SIZE);
2174:Generated_Source\PSoC5/BL.c ****                             if ((*BL_SizeBytesAccess % CYDEV_FLS_ROW_SIZE) != 0u)
2175:Generated_Source\PSoC5/BL.c ****                             {
2176:Generated_Source\PSoC5/BL.c ****                                 firstRow++;
2177:Generated_Source\PSoC5/BL.c ****                             }
2178:Generated_Source\PSoC5/BL.c ****                         #else /*Combination project type*/                       
2179:Generated_Source\PSoC5/BL.c ****                             
2180:Generated_Source\PSoC5/BL.c ****                             if (BL_RUNNING_APPLICATION_0 == BL_runningApp) 
2181:Generated_Source\PSoC5/BL.c ****                             {
2182:Generated_Source\PSoC5/BL.c ****                                 btldrLastRow = (uint16)BL_GetMetadata(BL_GET_BTLDR_LAST_ROW, 
2183:Generated_Source\PSoC5/BL.c ****                                                                             BL_MD_BTLDB_ACTIVE_1); 
2184:Generated_Source\PSoC5/BL.c ****                             }    
2185:Generated_Source\PSoC5/BL.c ****                             else /*(BL_RUNNING_APPLICATION_1 == BL_runningApp)*/
2186:Generated_Source\PSoC5/BL.c ****                             {
2187:Generated_Source\PSoC5/BL.c ****                                 btldrLastRow = (uint16)BL_GetMetadata(BL_GET_BTLDR_LAST_ROW,
2188:Generated_Source\PSoC5/BL.c ****                                                                             BL_MD_BTLDB_ACTIVE_0);
2189:Generated_Source\PSoC5/BL.c ****                             }
2190:Generated_Source\PSoC5/BL.c ****                                                 
2191:Generated_Source\PSoC5/BL.c ****                             firstRow = (uint16)(btldrLastRow + 1u); 
2192:Generated_Source\PSoC5/BL.c ****                         #endif /*(CYDEV_PROJ_TYPE != CYDEV_PROJ_TYPE_LOADABLEANDBOOTLOADER)*/      
2193:Generated_Source\PSoC5/BL.c **** 
2194:Generated_Source\PSoC5/BL.c ****                             /* Check to see if a row to be programmed will not corrupt the Bootload
2195:Generated_Source\PSoC5/BL.c ****                             if(row < firstRow)
2196:Generated_Source\PSoC5/BL.c ****                             {
2197:Generated_Source\PSoC5/BL.c ****                                 ackCode = BL_ERR_ROW;
2198:Generated_Source\PSoC5/BL.c ****                                 dataOffset = 0u;
2199:Generated_Source\PSoC5/BL.c ****                                 break;
2200:Generated_Source\PSoC5/BL.c ****                             }
2201:Generated_Source\PSoC5/BL.c ****                         
2202:Generated_Source\PSoC5/BL.c ****                         #if ((0u != BL_DUAL_APP_BOOTLOADER) || \
2203:Generated_Source\PSoC5/BL.c ****                              (CYDEV_PROJ_TYPE == CYDEV_PROJ_TYPE_LOADABLEANDBOOTLOADER))
2204:Generated_Source\PSoC5/BL.c ****                             
2205:Generated_Source\PSoC5/BL.c ****                             /**********************************************************************
ARM GAS  C:\Users\wormley\AppData\Local\Temp\ccWx7Wvt.s 			page 43


2206:Generated_Source\PSoC5/BL.c ****                             * No check is required in case when there is no app#1 present in Upgrad
2207:Generated_Source\PSoC5/BL.c ****                             * use case (no user application downloaded yet).                       
2208:Generated_Source\PSoC5/BL.c ****                             ***********************************************************************
2209:Generated_Source\PSoC5/BL.c ****                             #if (CYDEV_PROJ_TYPE == CYDEV_PROJ_TYPE_LOADABLEANDBOOTLOADER)
2210:Generated_Source\PSoC5/BL.c ****                             if (0u != app2StartAddress) 
2211:Generated_Source\PSoC5/BL.c ****                             {
2212:Generated_Source\PSoC5/BL.c ****                             #endif /*(CYDEV_PROJ_TYPE == CYDEV_PROJ_TYPE_LOADABLEANDBOOTLOADER)*/
2213:Generated_Source\PSoC5/BL.c ****                             
2214:Generated_Source\PSoC5/BL.c ****                                 if(BL_activeApp < BL_MD_BTLDB_ACTIVE_NONE)    
2215:Generated_Source\PSoC5/BL.c ****                                 {
2216:Generated_Source\PSoC5/BL.c ****                                     /* Refuse to write to active image */
2217:Generated_Source\PSoC5/BL.c ****                                     ackCode = BL_CheckImage(BL_activeApp, 
2218:Generated_Source\PSoC5/BL.c ****                                                                        btldrData, /*array number*/
2219:Generated_Source\PSoC5/BL.c ****                                                                        row,  /*row number*/
2220:Generated_Source\PSoC5/BL.c ****                                                                        dataOffset); /*row number in
2221:Generated_Source\PSoC5/BL.c ****                                 
2222:Generated_Source\PSoC5/BL.c ****                                     if (BL_ERR_ACTIVE == ackCode)
2223:Generated_Source\PSoC5/BL.c ****                                     {
2224:Generated_Source\PSoC5/BL.c ****                                         dataOffset = 0u;
2225:Generated_Source\PSoC5/BL.c ****                                         break;                                
2226:Generated_Source\PSoC5/BL.c ****                                     }
2227:Generated_Source\PSoC5/BL.c ****                                 }
2228:Generated_Source\PSoC5/BL.c ****                             #if (CYDEV_PROJ_TYPE == CYDEV_PROJ_TYPE_LOADABLEANDBOOTLOADER)
2229:Generated_Source\PSoC5/BL.c ****                             }
2230:Generated_Source\PSoC5/BL.c ****                             #endif /*(CYDEV_PROJ_TYPE == CYDEV_PROJ_TYPE_LOADABLEANDBOOTLOADER)*/
2231:Generated_Source\PSoC5/BL.c **** 
2232:Generated_Source\PSoC5/BL.c ****                             /*This option is available for classic Dual-app bootloader only*/
2233:Generated_Source\PSoC5/BL.c ****                             #if ((0u != BL_DUAL_APP_BOOTLOADER) && \
2234:Generated_Source\PSoC5/BL.c ****                                  (1u == BL_GOLDEN_IMAGE_AVAIL))
2235:Generated_Source\PSoC5/BL.c ****                             /* Check if this is an attempt to overwrite Golden image */
2236:Generated_Source\PSoC5/BL.c ****                             ackCode = BL_CheckImage(BL_GOLDEN_IMAGE, 
2237:Generated_Source\PSoC5/BL.c ****                                                                   btldrData, /*array number*/
2238:Generated_Source\PSoC5/BL.c ****                                                                   row, /*row number*/
2239:Generated_Source\PSoC5/BL.c ****                                                                   dataOffset); /*row number in scop
2240:Generated_Source\PSoC5/BL.c ****                             
2241:Generated_Source\PSoC5/BL.c ****                             
2242:Generated_Source\PSoC5/BL.c ****                             /**********************************************************************
2243:Generated_Source\PSoC5/BL.c ****                             * If an image to write is intended to update the Golden image and Golde
2244:Generated_Source\PSoC5/BL.c ****                             * itself is valid, then give an error that it is active/Golden, otherwi
2245:Generated_Source\PSoC5/BL.c ****                             * (invalid Golden image) let the Golden image to be overwritten.
2246:Generated_Source\PSoC5/BL.c ****                             ***********************************************************************
2247:Generated_Source\PSoC5/BL.c ****                             goldenImageValid = BL_ValidateBootloadable(BL_GOLDEN_IMAGE);           
2248:Generated_Source\PSoC5/BL.c ****                             if ((BL_ERR_ACTIVE == ackCode) && (CYRET_SUCCESS == goldenImageValid))
2249:Generated_Source\PSoC5/BL.c ****                             {
2250:Generated_Source\PSoC5/BL.c ****                                 dataOffset = 0u;
2251:Generated_Source\PSoC5/BL.c ****                                 break;                                
2252:Generated_Source\PSoC5/BL.c ****                             }
2253:Generated_Source\PSoC5/BL.c ****                             else /* It is OK to overwrite corrupted Golden image */
2254:Generated_Source\PSoC5/BL.c ****                             {
2255:Generated_Source\PSoC5/BL.c ****                                 ackCode = CYRET_SUCCESS;
2256:Generated_Source\PSoC5/BL.c ****                             }
2257:Generated_Source\PSoC5/BL.c ****                             #endif /*((0u != BL_DUAL_APP_BOOTLOADER) &&
2258:Generated_Source\PSoC5/BL.c ****                                       (1u == BL_GOLDEN_IMAGE_AVAIL)) */
2259:Generated_Source\PSoC5/BL.c ****                         #endif /*(0u != BL_DUAL_APP_BOOTLOADER) ||
2260:Generated_Source\PSoC5/BL.c ****                                  (CYDEV_PROJ_TYPE == CYDEV_PROJ_TYPE_LOADABLEANDBOOTLOADER)*/    
2261:Generated_Source\PSoC5/BL.c ****   
2262:Generated_Source\PSoC5/BL.c **** 
ARM GAS  C:\Users\wormley\AppData\Local\Temp\ccWx7Wvt.s 			page 44


2263:Generated_Source\PSoC5/BL.c ****                         /**************************************************************************
2264:Generated_Source\PSoC5/BL.c ****                         * Clear a row that contains metadata, when the "Fast bootloadable applicati
2265:Generated_Source\PSoC5/BL.c ****                         * validation" option is enabled.
2266:Generated_Source\PSoC5/BL.c ****                         *
2267:Generated_Source\PSoC5/BL.c ****                         * If the "Fast bootloadable application validation" option is enabled, the
2268:Generated_Source\PSoC5/BL.c ****                         * bootloader only computes the checksum the first time and assumes that it
2269:Generated_Source\PSoC5/BL.c ****                         * remains valid in each future startup. The metadata row is cleared because
2270:Generated_Source\PSoC5/BL.c ****                         * Bootloadable application might become corrupted during update, while
2271:Generated_Source\PSoC5/BL.c ****                         * the "Bootloadable Application Verification Status" field will still repor
2272:Generated_Source\PSoC5/BL.c ****                         * the application is valid.
2273:Generated_Source\PSoC5/BL.c ****                         ***************************************************************************
2274:Generated_Source\PSoC5/BL.c ****                         #if(0u != BL_FAST_APP_VALIDATION)
2275:Generated_Source\PSoC5/BL.c **** 
2276:Generated_Source\PSoC5/BL.c ****                             if(0u == clearedMetaData)
2277:Generated_Source\PSoC5/BL.c ****                             {
2278:Generated_Source\PSoC5/BL.c ****                                 /* Metadata section must be filled with zeros */
2279:Generated_Source\PSoC5/BL.c **** 
2280:Generated_Source\PSoC5/BL.c ****                                 uint8 erase[BL_FROW_SIZE];
2281:Generated_Source\PSoC5/BL.c ****                                 uint8 BL_notActiveApp;
2282:Generated_Source\PSoC5/BL.c **** 
2283:Generated_Source\PSoC5/BL.c **** 
2284:Generated_Source\PSoC5/BL.c ****                                 #if(CY_PSOC3)
2285:Generated_Source\PSoC5/BL.c ****                                     (void) memset(erase, (char8) 0, (int16) BL_FROW_SIZE);
2286:Generated_Source\PSoC5/BL.c ****                                 #else
2287:Generated_Source\PSoC5/BL.c ****                                     (void) memset(erase, 0, BL_FROW_SIZE);
2288:Generated_Source\PSoC5/BL.c ****                                 #endif  /* (CY_PSOC3) */
2289:Generated_Source\PSoC5/BL.c **** 
2290:Generated_Source\PSoC5/BL.c **** 
2291:Generated_Source\PSoC5/BL.c ****                                 #if ((0u != BL_DUAL_APP_BOOTLOADER) || \
2292:Generated_Source\PSoC5/BL.c ****                                      (CYDEV_PROJ_TYPE == CYDEV_PROJ_TYPE_LOADABLEANDBOOTLOADER))
2293:Generated_Source\PSoC5/BL.c ****                                     if (BL_MD_BTLDB_ACTIVE_0 == BL_activeApp)
2294:Generated_Source\PSoC5/BL.c ****                                     {
2295:Generated_Source\PSoC5/BL.c ****                                         BL_notActiveApp = BL_MD_BTLDB_ACTIVE_1;
2296:Generated_Source\PSoC5/BL.c ****                                     }
2297:Generated_Source\PSoC5/BL.c ****                                     else
2298:Generated_Source\PSoC5/BL.c ****                                     {
2299:Generated_Source\PSoC5/BL.c ****                                         BL_notActiveApp = BL_MD_BTLDB_ACTIVE_0;
2300:Generated_Source\PSoC5/BL.c ****                                     }
2301:Generated_Source\PSoC5/BL.c ****                                 #else
2302:Generated_Source\PSoC5/BL.c ****                                     BL_notActiveApp = BL_MD_BTLDB_ACTIVE_0;
2303:Generated_Source\PSoC5/BL.c ****                                 #endif /* (0u != BL_DUAL_APP_BOOTLOADER) */
2304:Generated_Source\PSoC5/BL.c **** 
2305:Generated_Source\PSoC5/BL.c **** 
2306:Generated_Source\PSoC5/BL.c ****                                 #if(CY_PSOC4)
2307:Generated_Source\PSoC5/BL.c ****                                     (void) CySysFlashWriteRow(
2308:Generated_Source\PSoC5/BL.c ****                                             BL_MD_ROW_NUM(BL_notActiveApp),
2309:Generated_Source\PSoC5/BL.c ****                                             erase);
2310:Generated_Source\PSoC5/BL.c ****                                 #else
2311:Generated_Source\PSoC5/BL.c ****                                     (void) CyWriteRowFull(
2312:Generated_Source\PSoC5/BL.c ****                                             (uint8)  BL_MD_FLASH_ARRAY_NUM,
2313:Generated_Source\PSoC5/BL.c ****                                             (uint16) BL_MD_ROW_NUM(BL_notActiveApp),
2314:Generated_Source\PSoC5/BL.c ****                                             erase,
2315:Generated_Source\PSoC5/BL.c ****                                             BL_FROW_SIZE);
2316:Generated_Source\PSoC5/BL.c ****                                 #endif  /* (CY_PSOC4) */
2317:Generated_Source\PSoC5/BL.c **** 
2318:Generated_Source\PSoC5/BL.c ****                                 /* PSoC 5: Do not care about flushing cache as flash row has been e
2319:Generated_Source\PSoC5/BL.c **** 
ARM GAS  C:\Users\wormley\AppData\Local\Temp\ccWx7Wvt.s 			page 45


2320:Generated_Source\PSoC5/BL.c ****                                 /* Set up flag that metadata was cleared */
2321:Generated_Source\PSoC5/BL.c ****                                 clearedMetaData = 1u;
2322:Generated_Source\PSoC5/BL.c ****                             }
2323:Generated_Source\PSoC5/BL.c **** 
2324:Generated_Source\PSoC5/BL.c ****                         #endif  /* (0u != BL_FAST_APP_VALIDATION) */
2325:Generated_Source\PSoC5/BL.c **** 
2326:Generated_Source\PSoC5/BL.c **** 
2327:Generated_Source\PSoC5/BL.c ****                         #if(!CY_PSOC4)
2328:Generated_Source\PSoC5/BL.c ****                             }   /* (btldrData <= BL_LAST_FLASH_ARRAYID) */
2329:Generated_Source\PSoC5/BL.c ****                         #endif  /* (!CY_PSOC4) */
2330:Generated_Source\PSoC5/BL.c **** 
2331:Generated_Source\PSoC5/BL.c **** 
2332:Generated_Source\PSoC5/BL.c ****                         #if(CY_PSOC4)
2333:Generated_Source\PSoC5/BL.c ****                             ackCode = (CYRET_SUCCESS != CySysFlashWriteRow((uint32) row, dataBuffer
2334:Generated_Source\PSoC5/BL.c ****                                 ? BL_ERR_ROW \
2335:Generated_Source\PSoC5/BL.c ****                                 : CYRET_SUCCESS;
2336:Generated_Source\PSoC5/BL.c ****                         #else
2337:Generated_Source\PSoC5/BL.c ****                             ackCode = (CYRET_SUCCESS != CyWriteRowFull(btldrData, dataOffset, dataB
2338:Generated_Source\PSoC5/BL.c ****                                 ? BL_ERR_ROW \
2339:Generated_Source\PSoC5/BL.c ****                                 : CYRET_SUCCESS;
2340:Generated_Source\PSoC5/BL.c ****                         #endif  /* (CY_PSOC4) */
2341:Generated_Source\PSoC5/BL.c **** 
2342:Generated_Source\PSoC5/BL.c **** 
2343:Generated_Source\PSoC5/BL.c ****                         #if(CY_PSOC5)
2344:Generated_Source\PSoC5/BL.c ****                             /**********************************************************************
2345:Generated_Source\PSoC5/BL.c ****                             * When writing to flash, data in the instruction cache can become stale
2346:Generated_Source\PSoC5/BL.c ****                             * Therefore, the cache data does not correlate to the data just written
2347:Generated_Source\PSoC5/BL.c ****                             * flash. A call to CyFlushCache() is required to invalidate the data in
2348:Generated_Source\PSoC5/BL.c ****                             * cache and force fresh information to be loaded from flash.
2349:Generated_Source\PSoC5/BL.c ****                             ***********************************************************************
2350:Generated_Source\PSoC5/BL.c ****                             CyFlushCache();
2351:Generated_Source\PSoC5/BL.c ****                         #endif /* (CY_PSOC5) */
2352:Generated_Source\PSoC5/BL.c **** 
2353:Generated_Source\PSoC5/BL.c ****                     }
2354:Generated_Source\PSoC5/BL.c ****                     else
2355:Generated_Source\PSoC5/BL.c ****                     {
2356:Generated_Source\PSoC5/BL.c ****                         ackCode = BL_ERR_LENGTH;
2357:Generated_Source\PSoC5/BL.c ****                     }
2358:Generated_Source\PSoC5/BL.c **** 
2359:Generated_Source\PSoC5/BL.c ****                     dataOffset = 0u;
2360:Generated_Source\PSoC5/BL.c ****                 }
2361:Generated_Source\PSoC5/BL.c ****                 break;
2362:Generated_Source\PSoC5/BL.c **** 
2363:Generated_Source\PSoC5/BL.c **** 
2364:Generated_Source\PSoC5/BL.c ****             /***************************************************************************
2365:Generated_Source\PSoC5/BL.c ****             *   Sync bootloader (0x35)
2366:Generated_Source\PSoC5/BL.c ****             ***************************************************************************/
2367:Generated_Source\PSoC5/BL.c ****             #if(0u != BL_CMD_SYNC_BOOTLOADER_AVAIL)
2368:Generated_Source\PSoC5/BL.c **** 
2369:Generated_Source\PSoC5/BL.c ****             case BL_COMMAND_SYNC:
2370:Generated_Source\PSoC5/BL.c **** 
2371:Generated_Source\PSoC5/BL.c ****                 if(BL_COMMUNICATION_STATE_ACTIVE == communicationState)
2372:Generated_Source\PSoC5/BL.c ****                 {
2373:Generated_Source\PSoC5/BL.c ****                     /* If something failed, Host would send this command to reset Bootloader. */
2374:Generated_Source\PSoC5/BL.c ****                     dataOffset = 0u;
2375:Generated_Source\PSoC5/BL.c **** 
2376:Generated_Source\PSoC5/BL.c ****                     /* Don't acknowledge the packet, just get ready to accept the next one */
ARM GAS  C:\Users\wormley\AppData\Local\Temp\ccWx7Wvt.s 			page 46


2377:Generated_Source\PSoC5/BL.c ****                     continue;
2378:Generated_Source\PSoC5/BL.c ****                 }
2379:Generated_Source\PSoC5/BL.c ****                 break;
2380:Generated_Source\PSoC5/BL.c **** 
2381:Generated_Source\PSoC5/BL.c ****             #endif  /* (0u != BL_CMD_SYNC_BOOTLOADER_AVAIL) */
2382:Generated_Source\PSoC5/BL.c **** 
2383:Generated_Source\PSoC5/BL.c **** 
2384:Generated_Source\PSoC5/BL.c ****             /***************************************************************************
2385:Generated_Source\PSoC5/BL.c ****             *   Set an active application (0x36)
2386:Generated_Source\PSoC5/BL.c ****             ***************************************************************************/
2387:Generated_Source\PSoC5/BL.c ****             #if ((0u != BL_DUAL_APP_BOOTLOADER) || \
2388:Generated_Source\PSoC5/BL.c ****                  (CYDEV_PROJ_TYPE == CYDEV_PROJ_TYPE_LOADABLEANDBOOTLOADER))    
2389:Generated_Source\PSoC5/BL.c **** 
2390:Generated_Source\PSoC5/BL.c ****                 case BL_COMMAND_APP_ACTIVE:
2391:Generated_Source\PSoC5/BL.c **** 
2392:Generated_Source\PSoC5/BL.c ****                     if((BL_COMMUNICATION_STATE_ACTIVE == communicationState) && (pktSize == 1u))
2393:Generated_Source\PSoC5/BL.c ****                     {
2394:Generated_Source\PSoC5/BL.c ****                         if(CYRET_SUCCESS == BL_ValidateBootloadable(btldrData))
2395:Generated_Source\PSoC5/BL.c ****                         {
2396:Generated_Source\PSoC5/BL.c ****                             BL_SetActiveAppInMetadata(btldrData);
2397:Generated_Source\PSoC5/BL.c ****                             BL_activeApp = btldrData;
2398:Generated_Source\PSoC5/BL.c ****                             ackCode = CYRET_SUCCESS;
2399:Generated_Source\PSoC5/BL.c ****                         }
2400:Generated_Source\PSoC5/BL.c ****                         else
2401:Generated_Source\PSoC5/BL.c ****                         {
2402:Generated_Source\PSoC5/BL.c ****                             ackCode = BL_ERR_APP;
2403:Generated_Source\PSoC5/BL.c ****                         }
2404:Generated_Source\PSoC5/BL.c ****                     }
2405:Generated_Source\PSoC5/BL.c ****                     break;
2406:Generated_Source\PSoC5/BL.c **** 
2407:Generated_Source\PSoC5/BL.c ****             #endif  /* (0u != BL_DUAL_APP_BOOTLOADER) || 
2408:Generated_Source\PSoC5/BL.c ****                        (CYDEV_PROJ_TYPE == CYDEV_PROJ_TYPE_LOADABLEANDBOOTLOADER) */
2409:Generated_Source\PSoC5/BL.c **** 
2410:Generated_Source\PSoC5/BL.c **** 
2411:Generated_Source\PSoC5/BL.c ****             /***************************************************************************
2412:Generated_Source\PSoC5/BL.c ****             *   Send data (0x37)
2413:Generated_Source\PSoC5/BL.c ****             ***************************************************************************/
2414:Generated_Source\PSoC5/BL.c ****             #if (0u != BL_CMD_SEND_DATA_AVAIL)
2415:Generated_Source\PSoC5/BL.c **** 
2416:Generated_Source\PSoC5/BL.c ****                 case BL_COMMAND_DATA:
2417:Generated_Source\PSoC5/BL.c **** 
2418:Generated_Source\PSoC5/BL.c ****                     if(BL_COMMUNICATION_STATE_ACTIVE == communicationState)
2419:Generated_Source\PSoC5/BL.c ****                     {
2420:Generated_Source\PSoC5/BL.c ****                         /*  Make sure that dataOffset is valid before copying data */
2421:Generated_Source\PSoC5/BL.c ****                         if((dataOffset + pktSize) <= BL_SIZEOF_COMMAND_BUFFER)
2422:Generated_Source\PSoC5/BL.c ****                         {
2423:Generated_Source\PSoC5/BL.c ****                             ackCode = CYRET_SUCCESS;
2424:Generated_Source\PSoC5/BL.c **** 
2425:Generated_Source\PSoC5/BL.c ****                             #if(CY_PSOC3)
2426:Generated_Source\PSoC5/BL.c ****                                 (void) memcpy(&dataBuffer[dataOffset],
2427:Generated_Source\PSoC5/BL.c ****                                               &packetBuffer[BL_DATA_ADDR],
2428:Generated_Source\PSoC5/BL.c ****                                               ( int16 )pktSize);
2429:Generated_Source\PSoC5/BL.c ****                             #else
2430:Generated_Source\PSoC5/BL.c ****                                 (void) memcpy(&dataBuffer[dataOffset],
2431:Generated_Source\PSoC5/BL.c ****                                               &packetBuffer[BL_DATA_ADDR],
2432:Generated_Source\PSoC5/BL.c ****                                               (uint32) pktSize);
2433:Generated_Source\PSoC5/BL.c ****                             #endif  /* (CY_PSOC3) */
ARM GAS  C:\Users\wormley\AppData\Local\Temp\ccWx7Wvt.s 			page 47


2434:Generated_Source\PSoC5/BL.c **** 
2435:Generated_Source\PSoC5/BL.c ****                             dataOffset += pktSize;
2436:Generated_Source\PSoC5/BL.c ****                         }
2437:Generated_Source\PSoC5/BL.c ****                         else
2438:Generated_Source\PSoC5/BL.c ****                         {
2439:Generated_Source\PSoC5/BL.c ****                             ackCode = BL_ERR_LENGTH;
2440:Generated_Source\PSoC5/BL.c ****                         }
2441:Generated_Source\PSoC5/BL.c ****                     }
2442:Generated_Source\PSoC5/BL.c **** 
2443:Generated_Source\PSoC5/BL.c ****                     break;
2444:Generated_Source\PSoC5/BL.c **** 
2445:Generated_Source\PSoC5/BL.c ****             #endif  /* (0u != BL_CMD_SEND_DATA_AVAIL) */
2446:Generated_Source\PSoC5/BL.c **** 
2447:Generated_Source\PSoC5/BL.c **** 
2448:Generated_Source\PSoC5/BL.c ****             /***************************************************************************
2449:Generated_Source\PSoC5/BL.c ****             *   Enter bootloader (0x38)
2450:Generated_Source\PSoC5/BL.c ****             ***************************************************************************/
2451:Generated_Source\PSoC5/BL.c ****             case BL_COMMAND_ENTER:
2452:Generated_Source\PSoC5/BL.c **** 
2453:Generated_Source\PSoC5/BL.c ****         #if (BL_SECURITY_KEY_AVAIL == 1u)    
2454:Generated_Source\PSoC5/BL.c ****             if(pktSize == 6u) /*Security key*/
2455:Generated_Source\PSoC5/BL.c ****         #else    
2456:Generated_Source\PSoC5/BL.c ****             if(pktSize == 0u) /*Security key is not demanded*/
2457:Generated_Source\PSoC5/BL.c ****         #endif /*(BL_SECURITY_KEY_AVAIL == 1u)*/   
2458:Generated_Source\PSoC5/BL.c ****                 {
2459:Generated_Source\PSoC5/BL.c ****                     #if(CY_PSOC3)
2460:Generated_Source\PSoC5/BL.c **** 
2461:Generated_Source\PSoC5/BL.c ****                         BL_ENTER CYDATA BtldrVersion =
2462:Generated_Source\PSoC5/BL.c ****                             {CYSWAP_ENDIAN32(CYDEV_CHIP_JTAG_ID), CYDEV_CHIP_REV_EXPECT, BL_VERSION
2463:Generated_Source\PSoC5/BL.c **** 
2464:Generated_Source\PSoC5/BL.c ****                     #else
2465:Generated_Source\PSoC5/BL.c **** 
2466:Generated_Source\PSoC5/BL.c ****                         BL_ENTER CYDATA BtldrVersion =
2467:Generated_Source\PSoC5/BL.c ****                             {CYDEV_CHIP_JTAG_ID, CYDEV_CHIP_REV_EXPECT, BL_VERSION};
2468:Generated_Source\PSoC5/BL.c ****             #endif  /* (CY_PSOC3) */
2469:Generated_Source\PSoC5/BL.c **** 
2470:Generated_Source\PSoC5/BL.c ****             #if (BL_SECURITY_KEY_AVAIL == 1u)
2471:Generated_Source\PSoC5/BL.c ****                 
2472:Generated_Source\PSoC5/BL.c ****                 /*Security key checking*/
2473:Generated_Source\PSoC5/BL.c ****                 uint8 idx = BL_SECURITY_KEY_LENGTH;
2474:Generated_Source\PSoC5/BL.c ****                 ackCode = CYRET_SUCCESS;
2475:Generated_Source\PSoC5/BL.c ****                 
2476:Generated_Source\PSoC5/BL.c ****                 do
2477:Generated_Source\PSoC5/BL.c ****                 {
2478:Generated_Source\PSoC5/BL.c ****                     idx--;                     
2479:Generated_Source\PSoC5/BL.c ****                     if (BL_securityKey[idx] != packetBuffer[BL_DATA_ADDR + idx])
2480:Generated_Source\PSoC5/BL.c ****                     {
2481:Generated_Source\PSoC5/BL.c ****                         ackCode = BL_ERR_DATA;
2482:Generated_Source\PSoC5/BL.c ****                         break;
2483:Generated_Source\PSoC5/BL.c ****                     }
2484:Generated_Source\PSoC5/BL.c ****                     
2485:Generated_Source\PSoC5/BL.c ****                 } while(0u != idx);
2486:Generated_Source\PSoC5/BL.c ****                 
2487:Generated_Source\PSoC5/BL.c ****                 if (BL_ERR_DATA == ackCode)
2488:Generated_Source\PSoC5/BL.c ****                 {
2489:Generated_Source\PSoC5/BL.c ****                     break;
2490:Generated_Source\PSoC5/BL.c ****                 }
ARM GAS  C:\Users\wormley\AppData\Local\Temp\ccWx7Wvt.s 			page 48


2491:Generated_Source\PSoC5/BL.c ****             #endif /*(BL_SECURITY_KEY_AVAIL == 1u)*/
2492:Generated_Source\PSoC5/BL.c ****                 
2493:Generated_Source\PSoC5/BL.c ****                 #if (CYDEV_PROJ_TYPE == CYDEV_PROJ_TYPE_LOADABLEANDBOOTLOADER) 
2494:Generated_Source\PSoC5/BL.c ****                     BL_isBootloading = BL_BOOTLOADING_IN_PROGRESS;
2495:Generated_Source\PSoC5/BL.c ****                 #endif /*(CYDEV_PROJ_TYPE == CYDEV_PROJ_TYPE_LOADABLEANDBOOTLOADER)*/    
2496:Generated_Source\PSoC5/BL.c ****                 
2497:Generated_Source\PSoC5/BL.c ****                     communicationState = BL_COMMUNICATION_STATE_ACTIVE;
2498:Generated_Source\PSoC5/BL.c **** 
2499:Generated_Source\PSoC5/BL.c ****                     rspSize = sizeof(BL_ENTER);
2500:Generated_Source\PSoC5/BL.c ****                     dataOffset = 0u; 
2501:Generated_Source\PSoC5/BL.c ****                     
2502:Generated_Source\PSoC5/BL.c ****                     #if(CY_PSOC3)
2503:Generated_Source\PSoC5/BL.c ****                         (void) memcpy(&packetBuffer[BL_DATA_ADDR],
2504:Generated_Source\PSoC5/BL.c ****                                       &BtldrVersion,
2505:Generated_Source\PSoC5/BL.c ****                                       ( int16 )rspSize);
2506:Generated_Source\PSoC5/BL.c ****                     #else
2507:Generated_Source\PSoC5/BL.c ****                         (void) memcpy(&packetBuffer[BL_DATA_ADDR],
2508:Generated_Source\PSoC5/BL.c ****                                       &BtldrVersion,
2509:Generated_Source\PSoC5/BL.c ****                                       (uint32) rspSize);
2510:Generated_Source\PSoC5/BL.c ****                     #endif  /* (CY_PSOC3) */
2511:Generated_Source\PSoC5/BL.c **** 
2512:Generated_Source\PSoC5/BL.c ****                     ackCode = CYRET_SUCCESS;
2513:Generated_Source\PSoC5/BL.c ****                 }
2514:Generated_Source\PSoC5/BL.c ****                 else /* Packet length does not match*/
2515:Generated_Source\PSoC5/BL.c ****                 {
2516:Generated_Source\PSoC5/BL.c ****                     ackCode = BL_ERR_DATA;
2517:Generated_Source\PSoC5/BL.c ****                 }
2518:Generated_Source\PSoC5/BL.c ****                 break;
2519:Generated_Source\PSoC5/BL.c **** 
2520:Generated_Source\PSoC5/BL.c **** 
2521:Generated_Source\PSoC5/BL.c ****             /***************************************************************************
2522:Generated_Source\PSoC5/BL.c ****             *   Get row checksum (0x3A)
2523:Generated_Source\PSoC5/BL.c ****             ***************************************************************************/
2524:Generated_Source\PSoC5/BL.c ****             #if (0u != BL_CMD_GET_ROW_CHKSUM_AVAIL)
2525:Generated_Source\PSoC5/BL.c **** 
2526:Generated_Source\PSoC5/BL.c ****             case BL_COMMAND_GET_ROW_CHKSUM:
2527:Generated_Source\PSoC5/BL.c **** 
2528:Generated_Source\PSoC5/BL.c ****                 if((BL_COMMUNICATION_STATE_ACTIVE == communicationState) && (pktSize == 3u))
2529:Generated_Source\PSoC5/BL.c ****                 {
2530:Generated_Source\PSoC5/BL.c ****                     /* Get flash/EEPROM row number */
2531:Generated_Source\PSoC5/BL.c ****                     uint16 CYDATA rowNum = ((uint16)((uint16)packetBuffer[BL_DATA_ADDR + 2u] << 8u)
2532:Generated_Source\PSoC5/BL.c ****                                                     packetBuffer[BL_DATA_ADDR + 1u];
2533:Generated_Source\PSoC5/BL.c ****                     
2534:Generated_Source\PSoC5/BL.c ****                     uint16 CYDATA tmpRowNum; 
2535:Generated_Source\PSoC5/BL.c ****                     #if(!CY_PSOC4)
2536:Generated_Source\PSoC5/BL.c **** 
2537:Generated_Source\PSoC5/BL.c ****                         uint32 CYDATA rowAddr;
2538:Generated_Source\PSoC5/BL.c ****                         uint8 CYDATA checksum;
2539:Generated_Source\PSoC5/BL.c **** 
2540:Generated_Source\PSoC5/BL.c ****                         if((btldrData >= BL_FIRST_EE_ARRAYID) &&
2541:Generated_Source\PSoC5/BL.c ****                            (btldrData <= BL_LAST_EE_ARRAYID))
2542:Generated_Source\PSoC5/BL.c ****                         {
2543:Generated_Source\PSoC5/BL.c ****                             /* EEPROM */
2544:Generated_Source\PSoC5/BL.c ****                             CyEEPROM_Start();
2545:Generated_Source\PSoC5/BL.c ****                             /* Both PSoC 3 and PSoC 5LP architecture have one EEPROM array. */
2546:Generated_Source\PSoC5/BL.c ****                             rowAddr = (uint32)rowNum * CYDEV_EEPROM_ROW_SIZE;
2547:Generated_Source\PSoC5/BL.c ****                             
ARM GAS  C:\Users\wormley\AppData\Local\Temp\ccWx7Wvt.s 			page 49


2548:Generated_Source\PSoC5/BL.c ****                             /* Checking if row number is within array address range */
2549:Generated_Source\PSoC5/BL.c ****                             ackCode = BL_CHECK_ROW_NUMBER(rowNum, 
2550:Generated_Source\PSoC5/BL.c ****                                 (BL_NUMBER_OF_EEPROM_SECTORS * BL_NUMBER_OF_ROWS_IN_EEPROM_SECTOR))
2551:Generated_Source\PSoC5/BL.c ****                     
2552:Generated_Source\PSoC5/BL.c ****                             if (CYRET_SUCCESS != ackCode)
2553:Generated_Source\PSoC5/BL.c ****                             {
2554:Generated_Source\PSoC5/BL.c ****                                 break;
2555:Generated_Source\PSoC5/BL.c ****                             }
2556:Generated_Source\PSoC5/BL.c **** 
2557:Generated_Source\PSoC5/BL.c ****                             checksum = BL_Calc8BitSum(CY_EEPROM_BASE, rowAddr, CYDEV_EEPROM_ROW_SIZ
2558:Generated_Source\PSoC5/BL.c ****                         }
2559:Generated_Source\PSoC5/BL.c ****                         else
2560:Generated_Source\PSoC5/BL.c ****                         {
2561:Generated_Source\PSoC5/BL.c ****                             /* flash */ 
2562:Generated_Source\PSoC5/BL.c ****                             rowAddr = ((uint32)btldrData * CYDEV_FLS_SECTOR_SIZE)
2563:Generated_Source\PSoC5/BL.c ****                                        + ((uint32)rowNum * CYDEV_FLS_ROW_SIZE);
2564:Generated_Source\PSoC5/BL.c **** 
2565:Generated_Source\PSoC5/BL.c ****                             /* Checking if row number is within array address range */
2566:Generated_Source\PSoC5/BL.c ****                             ackCode = BL_CHECK_ROW_NUMBER(rowNum, 
2567:Generated_Source\PSoC5/BL.c ****                                                        BL_NUMBER_OF_ROWS_IN_ARRAY);
2568:Generated_Source\PSoC5/BL.c ****                     
2569:Generated_Source\PSoC5/BL.c ****                             if (CYRET_SUCCESS != ackCode)
2570:Generated_Source\PSoC5/BL.c ****                             {
2571:Generated_Source\PSoC5/BL.c ****                                 break;
2572:Generated_Source\PSoC5/BL.c ****                             }                            
2573:Generated_Source\PSoC5/BL.c **** 
2574:Generated_Source\PSoC5/BL.c ****                             checksum = BL_Calc8BitSum(CY_FLASH_BASE, rowAddr, CYDEV_FLS_ROW_SIZE);
2575:Generated_Source\PSoC5/BL.c ****                         }
2576:Generated_Source\PSoC5/BL.c **** 
2577:Generated_Source\PSoC5/BL.c ****                     #else
2578:Generated_Source\PSoC5/BL.c **** 
2579:Generated_Source\PSoC5/BL.c ****                         uint32 CYDATA rowAddr = ((uint32)btldrData * CYDEV_FLS_SECTOR_SIZE)
2580:Generated_Source\PSoC5/BL.c ****                                             + ((uint32)rowNum * CYDEV_FLS_ROW_SIZE);
2581:Generated_Source\PSoC5/BL.c ****                         
2582:Generated_Source\PSoC5/BL.c ****                         uint8 CYDATA checksum;
2583:Generated_Source\PSoC5/BL.c ****                          
2584:Generated_Source\PSoC5/BL.c ****                         /* Checking if row number is within array address range */
2585:Generated_Source\PSoC5/BL.c ****                         ackCode = BL_CHECK_ROW_NUMBER(rowNum, 
2586:Generated_Source\PSoC5/BL.c ****                                                        BL_NUMBER_OF_ROWS_IN_ARRAY);
2587:Generated_Source\PSoC5/BL.c ****                     
2588:Generated_Source\PSoC5/BL.c ****                         if (CYRET_SUCCESS != ackCode)
2589:Generated_Source\PSoC5/BL.c ****                         {
2590:Generated_Source\PSoC5/BL.c ****                             break;
2591:Generated_Source\PSoC5/BL.c ****                         }                     
2592:Generated_Source\PSoC5/BL.c **** 
2593:Generated_Source\PSoC5/BL.c ****                         checksum = BL_Calc8BitSum(CY_FLASH_BASE, rowAddr, CYDEV_FLS_ROW_SIZE);
2594:Generated_Source\PSoC5/BL.c **** 
2595:Generated_Source\PSoC5/BL.c ****                     #endif  /* (!CY_PSOC4) */
2596:Generated_Source\PSoC5/BL.c **** 
2597:Generated_Source\PSoC5/BL.c **** 
2598:Generated_Source\PSoC5/BL.c ****                     /* Calculate checksum on data from ECC */
2599:Generated_Source\PSoC5/BL.c ****                     #if(!CY_PSOC4) && (CYDEV_ECC_ENABLE == 0u)
2600:Generated_Source\PSoC5/BL.c **** 
2601:Generated_Source\PSoC5/BL.c ****                         if(btldrData <= BL_LAST_FLASH_ARRAYID)
2602:Generated_Source\PSoC5/BL.c ****                         {
2603:Generated_Source\PSoC5/BL.c ****                             uint16 CYDATA tmpIndex;
2604:Generated_Source\PSoC5/BL.c **** 
ARM GAS  C:\Users\wormley\AppData\Local\Temp\ccWx7Wvt.s 			page 50


2605:Generated_Source\PSoC5/BL.c ****                             rowAddr = CYDEV_ECC_BASE + ((uint32)btldrData * (CYDEV_FLS_SECTOR_SIZE 
2606:Generated_Source\PSoC5/BL.c ****                                         + ((uint32)rowNum * CYDEV_ECC_ROW_SIZE);
2607:Generated_Source\PSoC5/BL.c **** 
2608:Generated_Source\PSoC5/BL.c ****                             for(tmpIndex = 0u; tmpIndex < CYDEV_ECC_ROW_SIZE; tmpIndex++)
2609:Generated_Source\PSoC5/BL.c ****                             {
2610:Generated_Source\PSoC5/BL.c ****                                 checksum += CY_GET_XTND_REG8((uint8 CYFAR *)(rowAddr + tmpIndex));
2611:Generated_Source\PSoC5/BL.c ****                             }
2612:Generated_Source\PSoC5/BL.c ****                         }
2613:Generated_Source\PSoC5/BL.c **** 
2614:Generated_Source\PSoC5/BL.c ****                     #endif  /* (!CY_PSOC4) && (CYDEV_ECC_ENABLE == 0u) */
2615:Generated_Source\PSoC5/BL.c **** 
2616:Generated_Source\PSoC5/BL.c **** 
2617:Generated_Source\PSoC5/BL.c ****                     /******************************************************************************
2618:Generated_Source\PSoC5/BL.c ****                     * App Verified & App Active are information updated in flash at the runtime.
2619:Generated_Source\PSoC5/BL.c ****                     * Remove these items from the checksum to allow the host to verify if everythin
2620:Generated_Source\PSoC5/BL.c ****                     * correct.
2621:Generated_Source\PSoC5/BL.c ****                      ******************************************************************************
2622:Generated_Source\PSoC5/BL.c ****                     #if(!CY_PSOC4)
2623:Generated_Source\PSoC5/BL.c ****                         tmpRowNum = rowNum; 
2624:Generated_Source\PSoC5/BL.c ****                     #else
2625:Generated_Source\PSoC5/BL.c ****                         tmpRowNum = rowNum + ((uint16)(BL_NUMBER_OF_ROWS_IN_ARRAY * btldrData));
2626:Generated_Source\PSoC5/BL.c ****                     #endif
2627:Generated_Source\PSoC5/BL.c ****                     
2628:Generated_Source\PSoC5/BL.c ****                     if((BL_MD_FLASH_ARRAY_NUM == btldrData) && (BL_CONTAIN_METADATA(tmpRowNum)))
2629:Generated_Source\PSoC5/BL.c ****                     {
2630:Generated_Source\PSoC5/BL.c **** 
2631:Generated_Source\PSoC5/BL.c ****                         checksum -= (uint8)BL_GetMetadata(BL_GET_BTLDB_ACTIVE,
2632:Generated_Source\PSoC5/BL.c ****                                                                  BL_GET_APP_ID(tmpRowNum));
2633:Generated_Source\PSoC5/BL.c **** 
2634:Generated_Source\PSoC5/BL.c ****                         checksum -= (uint8)BL_GetMetadata(BL_GET_BTLDB_STATUS,
2635:Generated_Source\PSoC5/BL.c ****                                                                  BL_GET_APP_ID(tmpRowNum));
2636:Generated_Source\PSoC5/BL.c ****                     }
2637:Generated_Source\PSoC5/BL.c **** 
2638:Generated_Source\PSoC5/BL.c ****                     packetBuffer[BL_DATA_ADDR] = (uint8)1u + (uint8)(~checksum);
2639:Generated_Source\PSoC5/BL.c ****                     ackCode = CYRET_SUCCESS;
2640:Generated_Source\PSoC5/BL.c ****                     rspSize = BL_RSP_SIZE_VERIFY_ROW_CHKSM;
2641:Generated_Source\PSoC5/BL.c ****                 }
2642:Generated_Source\PSoC5/BL.c ****                 break;
2643:Generated_Source\PSoC5/BL.c **** 
2644:Generated_Source\PSoC5/BL.c ****             #endif /* (0u != BL_CMD_GET_ROW_CHKSUM_AVAIL) */
2645:Generated_Source\PSoC5/BL.c **** 
2646:Generated_Source\PSoC5/BL.c **** 
2647:Generated_Source\PSoC5/BL.c ****             /***************************************************************************
2648:Generated_Source\PSoC5/BL.c ****             *   Exit bootloader (0x3B)
2649:Generated_Source\PSoC5/BL.c ****             ***************************************************************************/
2650:Generated_Source\PSoC5/BL.c ****             case BL_COMMAND_EXIT:
2651:Generated_Source\PSoC5/BL.c **** 
2652:Generated_Source\PSoC5/BL.c ****                 /*******************************************************************************
2653:Generated_Source\PSoC5/BL.c ****                 * Currently the copy flag is checked in the metadata for the second application. 
2654:Generated_Source\PSoC5/BL.c ****                 * If it is set, then the copy operation is required and Launcher (BTLDR) should 
2655:Generated_Source\PSoC5/BL.c ****                 * be scheduled.
2656:Generated_Source\PSoC5/BL.c ****                 *******************************************************************************/
2657:Generated_Source\PSoC5/BL.c ****             #if (CYDEV_PROJ_TYPE == CYDEV_PROJ_TYPE_LOADABLEANDBOOTLOADER)
2658:Generated_Source\PSoC5/BL.c ****                 needToCopyFlag = BL_GetMetadata(BL_GET_BTLDB_COPY_FLAG, 
2659:Generated_Source\PSoC5/BL.c ****                                                         BL_MD_BTLDB_ACTIVE_1);                     
2660:Generated_Source\PSoC5/BL.c ****         
2661:Generated_Source\PSoC5/BL.c ****                 /* Checking "Need to copy" flag in metadata#1 */
ARM GAS  C:\Users\wormley\AppData\Local\Temp\ccWx7Wvt.s 			page 51


2662:Generated_Source\PSoC5/BL.c ****                 if (0u != (needToCopyFlag & BL_NEED_TO_COPY_MASK))
2663:Generated_Source\PSoC5/BL.c ****                 {  
2664:Generated_Source\PSoC5/BL.c ****                     BL_SET_RUN_TYPE(BL_SCHEDULE_BTLDR);
2665:Generated_Source\PSoC5/BL.c ****                 }
2666:Generated_Source\PSoC5/BL.c ****                 else
2667:Generated_Source\PSoC5/BL.c ****             #endif /* (CYDEV_PROJ_TYPE == CYDEV_PROJ_TYPE_LOADABLEANDBOOTLOADER) */
2668:Generated_Source\PSoC5/BL.c ****         
2669:Generated_Source\PSoC5/BL.c ****                 if(CYRET_SUCCESS == BL_ValidateBootloadable(BL_activeApp))
2670:Generated_Source\PSoC5/BL.c ****                 {
2671:Generated_Source\PSoC5/BL.c ****                     BL_SET_RUN_TYPE(BL_SCHEDULE_BTLDB);
2672:Generated_Source\PSoC5/BL.c ****                 }
2673:Generated_Source\PSoC5/BL.c ****                 
2674:Generated_Source\PSoC5/BL.c ****             #if (CYDEV_PROJ_TYPE == CYDEV_PROJ_TYPE_LOADABLEANDBOOTLOADER)
2675:Generated_Source\PSoC5/BL.c ****                 BL_isBootloading = BL_BOOTLOADING_COMPLETED;
2676:Generated_Source\PSoC5/BL.c ****             #endif /* CYDEV_PROJ_TYPE == CYDEV_PROJ_TYPE_LOADABLEANDBOOTLOADER */    
2677:Generated_Source\PSoC5/BL.c ****             
2678:Generated_Source\PSoC5/BL.c ****                 CyBtldrCommStop();
2679:Generated_Source\PSoC5/BL.c ****                         
2680:Generated_Source\PSoC5/BL.c ****                 CySoftwareReset();
2681:Generated_Source\PSoC5/BL.c **** 
2682:Generated_Source\PSoC5/BL.c ****                 /* Will never get here */
2683:Generated_Source\PSoC5/BL.c ****                 break;
2684:Generated_Source\PSoC5/BL.c **** 
2685:Generated_Source\PSoC5/BL.c **** 
2686:Generated_Source\PSoC5/BL.c ****             /***************************************************************************
2687:Generated_Source\PSoC5/BL.c ****             *   Unsupported command
2688:Generated_Source\PSoC5/BL.c ****             ***************************************************************************/
2689:Generated_Source\PSoC5/BL.c ****             default:
2690:Generated_Source\PSoC5/BL.c ****             
2691:Generated_Source\PSoC5/BL.c ****             #if (!CY_PSOC3)
2692:Generated_Source\PSoC5/BL.c ****                 if ((NULL != BL_callback) && (BL_COMMUNICATION_STATE_ACTIVE == communicationState))
2693:Generated_Source\PSoC5/BL.c ****                 {
2694:Generated_Source\PSoC5/BL.c ****                     BL_in_packet_type BL_inPacket; 
2695:Generated_Source\PSoC5/BL.c ****                     BL_out_packet_type BL_outPacket;
2696:Generated_Source\PSoC5/BL.c **** 
2697:Generated_Source\PSoC5/BL.c ****                     /* Initializing input packet */
2698:Generated_Source\PSoC5/BL.c ****                     BL_inPacket.command = packetBuffer[BL_CMD_ADDR];
2699:Generated_Source\PSoC5/BL.c ****                     BL_inPacket.packetLength = pktSize;
2700:Generated_Source\PSoC5/BL.c ****                     BL_inPacket.pInputBuffer = &packetBuffer[BL_DATA_ADDR];
2701:Generated_Source\PSoC5/BL.c ****                                         
2702:Generated_Source\PSoC5/BL.c ****                     /* Clearing and setting output packet */
2703:Generated_Source\PSoC5/BL.c ****                     (void) memset(&BL_outPacket, 0, sizeof(BL_outPacket));
2704:Generated_Source\PSoC5/BL.c ****                     BL_outPacket.pOutputBuffer = &packetBuffer[BL_DATA_ADDR];
2705:Generated_Source\PSoC5/BL.c ****                     
2706:Generated_Source\PSoC5/BL.c ****                     /* Callback */
2707:Generated_Source\PSoC5/BL.c ****                     (void) BL_callback(&BL_inPacket, &BL_outPacket);
2708:Generated_Source\PSoC5/BL.c **** 
2709:Generated_Source\PSoC5/BL.c ****                     rspSize = BL_outPacket.packetLength;
2710:Generated_Source\PSoC5/BL.c ****                     if (((rspSize > (BL_SIZEOF_COMMAND_BUFFER - BL_MIN_PKT_SIZE)) && 
2711:Generated_Source\PSoC5/BL.c ****                          (BL_outPacket.pOutputBuffer == &packetBuffer[BL_DATA_ADDR])) ||
2712:Generated_Source\PSoC5/BL.c ****                         ((NULL == BL_outPacket.pOutputBuffer) && (0u != rspSize)))
2713:Generated_Source\PSoC5/BL.c ****                     {                    
2714:Generated_Source\PSoC5/BL.c ****                         /* One of returned parameters is wrong */
2715:Generated_Source\PSoC5/BL.c ****                         ackCode = BL_ERR_CALLBACK;
2716:Generated_Source\PSoC5/BL.c ****                         rspSize = 0u;
2717:Generated_Source\PSoC5/BL.c ****                     }
2718:Generated_Source\PSoC5/BL.c ****                     else /* Everything is OK */
ARM GAS  C:\Users\wormley\AppData\Local\Temp\ccWx7Wvt.s 			page 52


2719:Generated_Source\PSoC5/BL.c ****                     {
2720:Generated_Source\PSoC5/BL.c ****                         ackCode = (uint8)BL_outPacket.status;
2721:Generated_Source\PSoC5/BL.c ****                     }
2722:Generated_Source\PSoC5/BL.c ****                 }    
2723:Generated_Source\PSoC5/BL.c ****                 else /* No callback function defined, so return "Error Command" status */
2724:Generated_Source\PSoC5/BL.c ****             #endif /* (!CY_PSOC3) */
2725:Generated_Source\PSoC5/BL.c ****                 {
2726:Generated_Source\PSoC5/BL.c ****                     ackCode = BL_ERR_CMD;
2727:Generated_Source\PSoC5/BL.c ****                 }    
2728:Generated_Source\PSoC5/BL.c ****                 break;
2729:Generated_Source\PSoC5/BL.c ****             }
2730:Generated_Source\PSoC5/BL.c ****         }
2731:Generated_Source\PSoC5/BL.c **** 
2732:Generated_Source\PSoC5/BL.c ****         /* Reply with acknowledge or not acknowledge packet */
2733:Generated_Source\PSoC5/BL.c ****         (void) BL_WritePacket(ackCode, packetBuffer, rspSize);
2734:Generated_Source\PSoC5/BL.c ****    
2735:Generated_Source\PSoC5/BL.c ****     } while ((0u == timeOut) || (BL_COMMUNICATION_STATE_ACTIVE == communicationState));
2736:Generated_Source\PSoC5/BL.c **** }
2737:Generated_Source\PSoC5/BL.c **** 
2738:Generated_Source\PSoC5/BL.c **** 
2739:Generated_Source\PSoC5/BL.c **** /*******************************************************************************
2740:Generated_Source\PSoC5/BL.c **** * Function Name: BL_WritePacket
2741:Generated_Source\PSoC5/BL.c **** ****************************************************************************//**
2742:Generated_Source\PSoC5/BL.c **** * \internal
2743:Generated_Source\PSoC5/BL.c **** *
2744:Generated_Source\PSoC5/BL.c **** * \brief
2745:Generated_Source\PSoC5/BL.c **** *  Creates a bootloader response packet and transmits it back to the bootloader
2746:Generated_Source\PSoC5/BL.c **** *  host application over the already established communications protocol.
2747:Generated_Source\PSoC5/BL.c **** *
2748:Generated_Source\PSoC5/BL.c **** *  \param status
2749:Generated_Source\PSoC5/BL.c **** *      The status code to pass back as the second byte of the packet.
2750:Generated_Source\PSoC5/BL.c **** *  \param buffer
2751:Generated_Source\PSoC5/BL.c **** *      The buffer containing the data portion of the packet.
2752:Generated_Source\PSoC5/BL.c **** *  \param size
2753:Generated_Source\PSoC5/BL.c **** *      The number of bytes contained within the buffer to pass back.
2754:Generated_Source\PSoC5/BL.c **** *
2755:Generated_Source\PSoC5/BL.c **** * \return
2756:Generated_Source\PSoC5/BL.c **** *   CYRET_SUCCESS if successful. Any other non-zero value if a failure occurred.
2757:Generated_Source\PSoC5/BL.c **** *
2758:Generated_Source\PSoC5/BL.c **** * \endinternal
2759:Generated_Source\PSoC5/BL.c **** *******************************************************************************/
2760:Generated_Source\PSoC5/BL.c **** static cystatus BL_WritePacket(uint8 status, uint8 buffer[], uint16 size) CYSMALL \
2761:Generated_Source\PSoC5/BL.c ****                                             
2762:Generated_Source\PSoC5/BL.c **** {
 183              		.loc 1 2762 0
 184              		.cfi_startproc
 185              		@ args = 0, pretend = 0, frame = 8
 186              		@ frame_needed = 0, uses_anonymous_args = 0
 187              	.LVL17:
 188 0000 2DE9F041 		push	{r4, r5, r6, r7, r8, lr}
 189              		.cfi_def_cfa_offset 24
 190              		.cfi_offset 4, -24
 191              		.cfi_offset 5, -20
 192              		.cfi_offset 6, -16
 193              		.cfi_offset 7, -12
 194              		.cfi_offset 8, -8
 195              		.cfi_offset 14, -4
ARM GAS  C:\Users\wormley\AppData\Local\Temp\ccWx7Wvt.s 			page 53


 196 0004 82B0     		sub	sp, sp, #8
 197              		.cfi_def_cfa_offset 32
 198 0006 0C46     		mov	r4, r1
 199 0008 1646     		mov	r6, r2
 200 000a 02AF     		add	r7, sp, #8
 201 000c 27F8022D 		strh	r2, [r7, #-2]!	@ movhi
2763:Generated_Source\PSoC5/BL.c ****     uint16 CYDATA checksum;
2764:Generated_Source\PSoC5/BL.c **** 
2765:Generated_Source\PSoC5/BL.c ****     /* Start of packet. */
2766:Generated_Source\PSoC5/BL.c ****     buffer[BL_SOP_ADDR]      = BL_SOP;
 202              		.loc 1 2766 0
 203 0010 0123     		movs	r3, #1
 204 0012 0B70     		strb	r3, [r1]
2767:Generated_Source\PSoC5/BL.c ****     buffer[BL_CMD_ADDR]      = status;
 205              		.loc 1 2767 0
 206 0014 4870     		strb	r0, [r1, #1]
2768:Generated_Source\PSoC5/BL.c ****     buffer[BL_SIZE_ADDR]     = LO8(size);
 207              		.loc 1 2768 0
 208 0016 1546     		mov	r5, r2
 209 0018 A270     		strb	r2, [r4, #2]
2769:Generated_Source\PSoC5/BL.c ****     buffer[BL_SIZE_ADDR + 1u] = HI8(size);
 210              		.loc 1 2769 0
 211 001a 130A     		lsrs	r3, r2, #8
 212 001c CB70     		strb	r3, [r1, #3]
2770:Generated_Source\PSoC5/BL.c **** 
2771:Generated_Source\PSoC5/BL.c ****     /* Compute checksum. */
2772:Generated_Source\PSoC5/BL.c ****     checksum = BL_CalcPacketChecksum(buffer, size + BL_DATA_ADDR);
 213              		.loc 1 2772 0
 214 001e 02F10408 		add	r8, r2, #4
 215 0022 1FFA88F1 		uxth	r1, r8
 216              	.LVL18:
 217 0026 2046     		mov	r0, r4
 218              	.LVL19:
 219 0028 FFF7FEFF 		bl	BL_CalcPacketChecksum
 220              	.LVL20:
2773:Generated_Source\PSoC5/BL.c **** 
2774:Generated_Source\PSoC5/BL.c ****     buffer[BL_CHK_ADDR(size)]     = LO8(checksum);
 221              		.loc 1 2774 0
 222 002c 04F80800 		strb	r0, [r4, r8]
2775:Generated_Source\PSoC5/BL.c ****     buffer[BL_CHK_ADDR(1u + size)] = HI8(checksum);
 223              		.loc 1 2775 0
 224 0030 731D     		adds	r3, r6, #5
 225 0032 C0F30720 		ubfx	r0, r0, #8, #8
 226              	.LVL21:
 227 0036 E054     		strb	r0, [r4, r3]
2776:Generated_Source\PSoC5/BL.c ****     buffer[BL_EOP_ADDR(size)]     = BL_EOP;
 228              		.loc 1 2776 0
 229 0038 0635     		adds	r5, r5, #6
 230 003a 1723     		movs	r3, #23
 231 003c 6355     		strb	r3, [r4, r5]
2777:Generated_Source\PSoC5/BL.c **** 
2778:Generated_Source\PSoC5/BL.c ****     /* Start packet transmit. */
2779:Generated_Source\PSoC5/BL.c ****     return(CyBtldrCommWrite(buffer, size + BL_MIN_PKT_SIZE, &size, 150u));
 232              		.loc 1 2779 0
 233 003e F11D     		adds	r1, r6, #7
 234 0040 9623     		movs	r3, #150
 235 0042 3A46     		mov	r2, r7
ARM GAS  C:\Users\wormley\AppData\Local\Temp\ccWx7Wvt.s 			page 54


 236 0044 89B2     		uxth	r1, r1
 237 0046 2046     		mov	r0, r4
 238 0048 FFF7FEFF 		bl	USBFS_CyBtldrCommWrite
 239              	.LVL22:
2780:Generated_Source\PSoC5/BL.c **** }
 240              		.loc 1 2780 0
 241 004c 02B0     		add	sp, sp, #8
 242              		.cfi_def_cfa_offset 24
 243              		@ sp needed
 244 004e BDE8F081 		pop	{r4, r5, r6, r7, r8, pc}
 245              		.cfi_endproc
 246              	.LFE74:
 247              		.size	BL_WritePacket, .-BL_WritePacket
 248 0052 00BF     		.section	.text.BL_InitCallback,"ax",%progbits
 249              		.align	2
 250              		.global	BL_InitCallback
 251              		.thumb
 252              		.thumb_func
 253              		.type	BL_InitCallback, %function
 254              	BL_InitCallback:
 255              	.LFB64:
 468:Generated_Source\PSoC5/BL.c ****     BL_callback = userCallback;
 256              		.loc 1 468 0
 257              		.cfi_startproc
 258              		@ args = 0, pretend = 0, frame = 0
 259              		@ frame_needed = 0, uses_anonymous_args = 0
 260              		@ link register save eliminated.
 261              	.LVL23:
 469:Generated_Source\PSoC5/BL.c **** }
 262              		.loc 1 469 0
 263 0000 014B     		ldr	r3, .L18
 264 0002 1860     		str	r0, [r3]
 265 0004 7047     		bx	lr
 266              	.L19:
 267 0006 00BF     		.align	2
 268              	.L18:
 269 0008 00000000 		.word	.LANCHOR0
 270              		.cfi_endproc
 271              	.LFE64:
 272              		.size	BL_InitCallback, .-BL_InitCallback
 273              		.section	.text.BL_Calc8BitSum,"ax",%progbits
 274              		.align	2
 275              		.global	BL_Calc8BitSum
 276              		.thumb
 277              		.thumb_func
 278              		.type	BL_Calc8BitSum, %function
 279              	BL_Calc8BitSum:
 280              	.LFB66:
 542:Generated_Source\PSoC5/BL.c ****     uint8 CYDATA sum = 0u;
 281              		.loc 1 542 0
 282              		.cfi_startproc
 283              		@ args = 0, pretend = 0, frame = 0
 284              		@ frame_needed = 0, uses_anonymous_args = 0
 285              	.LVL24:
 286 0000 70B5     		push	{r4, r5, r6, lr}
 287              		.cfi_def_cfa_offset 16
 288              		.cfi_offset 4, -16
ARM GAS  C:\Users\wormley\AppData\Local\Temp\ccWx7Wvt.s 			page 55


 289              		.cfi_offset 5, -12
 290              		.cfi_offset 6, -8
 291              		.cfi_offset 14, -4
 292 0002 0546     		mov	r5, r0
 293 0004 0E46     		mov	r6, r1
 294 0006 1446     		mov	r4, r2
 295              	.LVL25:
 546:Generated_Source\PSoC5/BL.c ****     #else
 296              		.loc 1 546 0
 297 0008 084B     		ldr	r3, .L25
 298 000a 9842     		cmp	r0, r3
 299 000c 03D0     		beq	.L21
 546:Generated_Source\PSoC5/BL.c ****     #else
 300              		.loc 1 546 0 is_stmt 0 discriminator 1
 301 000e 10B1     		cbz	r0, .L21
 546:Generated_Source\PSoC5/BL.c ****     #else
 302              		.loc 1 546 0 discriminator 2
 303 0010 0020     		movs	r0, #0
 304              	.LVL26:
 305 0012 FFF7FEFF 		bl	CyHalt
 306              	.LVL27:
 307              	.L21:
 542:Generated_Source\PSoC5/BL.c ****     uint8 CYDATA sum = 0u;
 308              		.loc 1 542 0 is_stmt 1
 309 0016 0020     		movs	r0, #0
 310 0018 04E0     		b	.L22
 311              	.LVL28:
 312              	.L23:
 553:Generated_Source\PSoC5/BL.c ****         sum += CY_GET_XTND_REG8((uint8 CYFAR *)(baseAddr + start + size));
 313              		.loc 1 553 0
 314 001a 013C     		subs	r4, r4, #1
 315              	.LVL29:
 554:Generated_Source\PSoC5/BL.c ****     }
 316              		.loc 1 554 0
 317 001c AB19     		adds	r3, r5, r6
 318 001e E35C     		ldrb	r3, [r4, r3]	@ zero_extendqisi2
 319 0020 1844     		add	r0, r0, r3
 320              	.LVL30:
 321 0022 C0B2     		uxtb	r0, r0
 322              	.LVL31:
 323              	.L22:
 551:Generated_Source\PSoC5/BL.c ****     {
 324              		.loc 1 551 0
 325 0024 002C     		cmp	r4, #0
 326 0026 F8D1     		bne	.L23
 558:Generated_Source\PSoC5/BL.c **** 
 327              		.loc 1 558 0
 328 0028 70BD     		pop	{r4, r5, r6, pc}
 329              	.LVL32:
 330              	.L26:
 331 002a 00BF     		.align	2
 332              	.L25:
 333 002c 00800040 		.word	1073774592
 334              		.cfi_endproc
 335              	.LFE66:
 336              		.size	BL_Calc8BitSum, .-BL_Calc8BitSum
 337              		.section	.text.BL_SetFlashByte,"ax",%progbits
ARM GAS  C:\Users\wormley\AppData\Local\Temp\ccWx7Wvt.s 			page 56


 338              		.align	2
 339              		.global	BL_SetFlashByte
 340              		.thumb
 341              		.thumb_func
 342              		.type	BL_SetFlashByte, %function
 343              	BL_SetFlashByte:
 344              	.LFB75:
2781:Generated_Source\PSoC5/BL.c **** #endif /*(CYDEV_PROJ_TYPE != CYDEV_PROJ_TYPE_LAUNCHER)*/
2782:Generated_Source\PSoC5/BL.c **** 
2783:Generated_Source\PSoC5/BL.c **** /*******************************************************************************
2784:Generated_Source\PSoC5/BL.c **** * Function Name: BL_SetFlashByte
2785:Generated_Source\PSoC5/BL.c **** ****************************************************************************//**
2786:Generated_Source\PSoC5/BL.c **** *
2787:Generated_Source\PSoC5/BL.c **** * \brief
2788:Generated_Source\PSoC5/BL.c **** *  Writes a byte to the specified flash memory location.
2789:Generated_Source\PSoC5/BL.c **** *
2790:Generated_Source\PSoC5/BL.c **** * \param address
2791:Generated_Source\PSoC5/BL.c **** *      The address in flash memory where data will be written.
2792:Generated_Source\PSoC5/BL.c **** * \param runType:
2793:Generated_Source\PSoC5/BL.c **** *      The byte to be written.
2794:Generated_Source\PSoC5/BL.c **** *
2795:Generated_Source\PSoC5/BL.c **** *******************************************************************************/
2796:Generated_Source\PSoC5/BL.c **** void BL_SetFlashByte(uint32 address, uint8 runType) 
2797:Generated_Source\PSoC5/BL.c **** {
 345              		.loc 1 2797 0
 346              		.cfi_startproc
 347              		@ args = 0, pretend = 0, frame = 256
 348              		@ frame_needed = 0, uses_anonymous_args = 0
 349              	.LVL33:
 350 0000 70B5     		push	{r4, r5, r6, lr}
 351              		.cfi_def_cfa_offset 16
 352              		.cfi_offset 4, -16
 353              		.cfi_offset 5, -12
 354              		.cfi_offset 6, -8
 355              		.cfi_offset 14, -4
 356 0002 C0B0     		sub	sp, sp, #256
 357              		.cfi_def_cfa_offset 272
 358              	.LVL34:
2798:Generated_Source\PSoC5/BL.c ****     uint32 flsAddr = address - CYDEV_FLASH_BASE;
2799:Generated_Source\PSoC5/BL.c ****     uint8  rowData[CYDEV_FLS_ROW_SIZE];
2800:Generated_Source\PSoC5/BL.c **** 
2801:Generated_Source\PSoC5/BL.c ****     #if !(CY_PSOC4)
2802:Generated_Source\PSoC5/BL.c ****         uint8 arrayId = ( uint8 )(flsAddr / CYDEV_FLS_SECTOR_SIZE);
